S'3.2'
p1
.S'SLR'
p1
.S'\xef\xe0\xc6\x92f\xf8Yj9\n\xcf\x8cRKV\xef'
p1
.(dp1
I0
(dp2
S'EXCEPTION'
p3
I-40
sS'SHORT'
p4
I-40
sS'CONST'
p5
I-40
sS'VOID'
p6
I-40
sS'OBJECT'
p7
I-40
sS'STATIC'
p8
I-40
sS'DATE'
p9
I-40
sS'BYTE'
p10
I-40
sS'SETTER'
p11
I-40
sS'DOMSTRING'
p12
I-40
sS'CREATOR'
p13
I-40
sS'('
I-40
sS'UNSIGNED'
p14
I-40
sS'LONG'
p15
I-40
sS'READONLY'
p16
I-40
sS'$end'
p17
I-2
sS'TYPEDEF'
p18
I-40
sS'string'
p19
I-40
sS'DICTIONARY'
p20
I-40
sS'SEQUENCE'
p21
I-40
sS'ENUM'
p22
I-40
sS'OCTET'
p23
I-40
sS'INHERIT'
p24
I-40
sS'LEGACYCALLER'
p25
I-40
sS'GETTER'
p26
I-40
sS'REGEXP'
p27
I-40
sS'['
I3
sS'OPTIONAL'
p28
I-40
sS'BYTESTRING'
p29
I-40
sS'PARTIAL'
p30
I-40
sS'ATTRIBUTE'
p31
I-40
sS'FLOAT'
p32
I-40
sS'CALLBACK'
p33
I-40
sS'BOOLEAN'
p34
I-40
sS'error'
p35
I-40
sS'INTERFACE'
p36
I-40
sS'UNRESTRICTED'
p37
I-40
sS'identifier'
p38
I-40
sS'DOUBLE'
p39
I-40
sS'ANY'
p40
I-40
sS'DELETER'
p41
I-40
ssI1
(dp42
S'EXCEPTION'
p43
I13
sS'PARTIAL'
p44
I16
sS'DICTIONARY'
p45
I11
sS'ENUM'
p46
I12
sS'TYPEDEF'
p47
I15
sS'CALLBACK'
p48
I18
sS'error'
p49
I19
sS'INTERFACE'
p50
I20
sS'identifier'
p51
I21
ssI2
(dp52
S'$end'
p53
I0
ssI3
(dp54
S'identifier'
p55
I29
sS']'
I30
ssI4
(dp56
g18
I-8
sg30
I-8
sg20
I-8
sg22
I-8
sg3
I-8
sg33
I-8
sg35
I-8
sg36
I-8
sS'['
I-8
sg38
I-8
sg17
I-8
ssI5
(dp57
g18
I-3
sg30
I-3
sg20
I-3
sg22
I-3
sg3
I-3
sg33
I-3
sg35
I-3
sg36
I-3
sS'['
I-3
sg38
I-3
sg17
I-3
ssI6
(dp58
g18
I-5
sg30
I-5
sg20
I-5
sg22
I-5
sg3
I-5
sg33
I-5
sg35
I-5
sg36
I-5
sS'['
I-5
sg38
I-5
sg17
I-5
ssI7
(dp59
g18
I-7
sg30
I-7
sg20
I-7
sg22
I-7
sg3
I-7
sg33
I-7
sg35
I-7
sg36
I-7
sS'['
I-7
sg38
I-7
sg17
I-7
ssI8
(dp60
g18
I-11
sg30
I-11
sg20
I-11
sg22
I-11
sg3
I-11
sg33
I-11
sg35
I-11
sg36
I-11
sS'['
I-11
sg38
I-11
sg17
I-11
ssI9
(dp61
g3
I-40
sg4
I-40
sg5
I-40
sg6
I-40
sg7
I-40
sg8
I-40
sg9
I-40
sg10
I-40
sg11
I-40
sg12
I-40
sg13
I-40
sS'('
I-40
sg14
I-40
sg15
I-40
sg16
I-40
sg17
I-2
sg18
I-40
sg19
I-40
sg20
I-40
sg21
I-40
sg22
I-40
sg23
I-40
sg24
I-40
sg25
I-40
sg26
I-40
sg27
I-40
sS'['
I3
sg28
I-40
sg29
I-40
sg30
I-40
sg31
I-40
sg32
I-40
sg33
I-40
sg34
I-40
sg35
I-40
sg36
I-40
sg37
I-40
sg38
I-40
sg39
I-40
sg40
I-40
sg41
I-40
ssI10
(dp62
g18
I-6
sg30
I-6
sg20
I-6
sg22
I-6
sg3
I-6
sg33
I-6
sg35
I-6
sg36
I-6
sS'['
I-6
sg38
I-6
sg17
I-6
ssI11
(dp63
S'identifier'
p64
I33
sS'error'
p65
I32
ssI12
(dp66
S'identifier'
p67
I35
sS'error'
p68
I34
ssI13
(dp69
S'identifier'
p70
I36
ssI14
(dp71
g18
I-9
sg30
I-9
sg20
I-9
sg22
I-9
sg3
I-9
sg33
I-9
sg35
I-9
sg36
I-9
sS'['
I-9
sg38
I-9
sg17
I-9
ssI15
(dp72
g32
I-144
sg38
I-144
sg4
I-144
sg12
I-144
sg21
I-144
sS'('
I-144
sg7
I-144
sg23
I-144
sg14
I-144
sg15
I-144
sg40
I-144
sg34
I-144
sg37
I-144
sS'error'
p73
I38
sg9
I-144
sg27
I-144
sS'['
I39
sg29
I-144
sg39
I-144
sg10
I-144
ssI16
(dp74
S'INTERFACE'
p75
I44
sS'DICTIONARY'
p76
I41
sS'error'
p77
I43
ssI17
(dp78
g18
I-4
sg30
I-4
sg20
I-4
sg22
I-4
sg3
I-4
sg33
I-4
sg35
I-4
sg36
I-4
sS'['
I-4
sg38
I-4
sg17
I-4
ssI18
(dp79
g50
I20
sS'identifier'
p80
I49
ssI19
(dp81
S';'
I50
ssI20
(dp82
S'identifier'
p83
I51
ssI21
(dp84
S'IMPLEMENTS'
p85
I52
ssI22
(dp86
S']'
I-46
sS','
I54
ssI23
(dp87
S']'
I-53
sS','
I-53
ssI24
(dp88
S']'
I-49
sS','
I-49
ssI25
(dp89
S']'
I-51
sS','
I-51
ssI26
(dp90
S']'
I-50
sS','
I-50
ssI27
(dp91
S']'
I-48
sS','
I-48
ssI28
(dp92
S']'
I-52
sS','
I-52
ssI29
(dp93
S'('
I55
sS'='
I56
sS']'
I-199
sS','
I-199
ssI30
(dp94
g3
I-39
sg4
I-39
sg5
I-39
sg6
I-39
sg7
I-39
sg8
I-39
sg9
I-39
sg11
I-39
sg12
I-39
sg13
I-39
sS'('
I-39
sg14
I-39
sg15
I-39
sg16
I-39
sg18
I-39
sg19
I-39
sg20
I-39
sg21
I-39
sg22
I-39
sg23
I-39
sg24
I-39
sg25
I-39
sg26
I-39
sg27
I-39
sg10
I-39
sg28
I-39
sg29
I-39
sg30
I-39
sg31
I-39
sg32
I-39
sg33
I-39
sg34
I-39
sg35
I-39
sg36
I-39
sg37
I-39
sg38
I-39
sg39
I-39
sg40
I-39
sg41
I-39
ssI31
(dp95
g17
I-1
ssI32
(dp96
S';'
I57
ssI33
(dp97
S'{'
I-76
sS':'
I58
ssI34
(dp98
S';'
I60
ssI35
(dp99
S'{'
I61
ssI36
(dp100
S'{'
I-76
sS':'
I58
ssI37
(dp101
S'BYTESTRING'
p102
I78
sS'SHORT'
p103
I63
sS'DOMSTRING'
p104
I70
sS'SEQUENCE'
p105
I75
sS'('
I72
sS'OBJECT'
p106
I64
sS'OCTET'
p107
I76
sS'UNSIGNED'
p108
I66
sS'LONG'
p109
I73
sS'FLOAT'
p110
I85
sS'BOOLEAN'
p111
I88
sS'UNRESTRICTED'
p112
I89
sS'DOUBLE'
p113
I84
sS'DATE'
p114
I68
sS'REGEXP'
p115
I79
sS'BYTE'
p116
I80
sS'identifier'
p117
I83
sS'ANY'
p118
I87
ssI38
(dp119
S';'
I90
ssI39
(dp120
g55
I29
ssI40
(dp121
g18
I-25
sg30
I-25
sg20
I-25
sg22
I-25
sg3
I-25
sg33
I-25
sg35
I-25
sg36
I-25
sS'['
I-25
sg38
I-25
sg17
I-25
ssI41
(dp122
S'identifier'
p123
I93
sS'error'
p124
I92
ssI42
(dp125
g18
I-22
sg30
I-22
sg20
I-22
sg22
I-22
sg3
I-22
sg33
I-22
sg35
I-22
sg36
I-22
sS'['
I-22
sg38
I-22
sg17
I-22
ssI43
(dp126
g18
I-24
sg30
I-24
sg20
I-24
sg22
I-24
sg3
I-24
sg33
I-24
sg35
I-24
sg36
I-24
sS'['
I-24
sg38
I-24
sg17
I-24
ssI44
(dp127
S'identifier'
p128
I94
ssI45
(dp129
g18
I-26
sg30
I-26
sg20
I-26
sg22
I-26
sg3
I-26
sg33
I-26
sg35
I-26
sg36
I-26
sS'['
I-26
sg38
I-26
sg17
I-26
ssI46
(dp130
g18
I-10
sg30
I-10
sg20
I-10
sg22
I-10
sg3
I-10
sg33
I-10
sg35
I-10
sg36
I-10
sS'['
I-10
sg38
I-10
sg17
I-10
ssI47
(dp131
g18
I-18
sg30
I-18
sg20
I-18
sg22
I-18
sg3
I-18
sg33
I-18
sg35
I-18
sg36
I-18
sS'['
I-18
sg38
I-18
sg17
I-18
ssI48
(dp132
g18
I-19
sg30
I-19
sg20
I-19
sg22
I-19
sg3
I-19
sg33
I-19
sg35
I-19
sg36
I-19
sS'['
I-19
sg38
I-19
sg17
I-19
ssI49
(dp133
S'='
I95
ssI50
(dp134
g18
I-12
sg30
I-12
sg20
I-12
sg22
I-12
sg3
I-12
sg33
I-12
sg35
I-12
sg36
I-12
sS'['
I-12
sg38
I-12
sg17
I-12
ssI51
(dp135
S'{'
I-76
sS':'
I58
ssI52
(dp136
S'identifier'
p137
I97
ssI53
(dp138
S']'
I98
ssI54
(dp139
g55
I29
sS']'
I-45
ssI55
(dp140
g3
I-40
sg4
I-40
sg5
I-40
sg6
I-40
sg7
I-40
sg8
I-40
sg9
I-40
sg10
I-40
sg11
I-40
sg12
I-40
sg13
I-40
sS')'
I-130
sS'('
I-40
sg14
I-40
sg15
I-40
sg16
I-40
sg18
I-40
sg19
I-40
sg20
I-40
sg21
I-40
sg22
I-40
sg23
I-40
sg24
I-40
sg25
I-40
sg26
I-40
sg27
I-40
sS'['
I3
sg28
I-40
sg29
I-40
sg30
I-40
sg31
I-40
sg32
I-40
sg33
I-40
sg34
I-40
sS'error'
p141
I103
sg36
I-40
sg37
I-40
sg38
I-40
sg39
I-40
sg40
I-40
sg41
I-40
ssI56
(dp142
S'identifier'
p143
I106
sS'string'
p144
I107
ssI57
(dp145
g18
I-41
sg30
I-41
sg20
I-41
sg22
I-41
sg3
I-41
sg33
I-41
sg35
I-41
sg36
I-41
sS'['
I-41
sg38
I-41
sg17
I-41
ssI58
(dp146
S'identifier'
p147
I108
ssI59
(dp148
S'{'
I109
ssI60
(dp149
g18
I-80
sg30
I-80
sg20
I-80
sg22
I-80
sg3
I-80
sg33
I-80
sg35
I-80
sg36
I-80
sS'['
I-80
sg38
I-80
sg17
I-80
ssI61
(dp150
g3
I-40
sg4
I-40
sg5
I-40
sg6
I-40
sg7
I-40
sg8
I-40
sg9
I-40
sg10
I-40
sg11
I-40
sg12
I-40
sg13
I-40
sS'('
I-40
sg14
I-40
sg15
I-40
sg16
I-40
sg18
I-40
sg19
I-40
sg20
I-40
sg21
I-40
sg22
I-40
sg23
I-40
sg24
I-40
sg25
I-40
sg26
I-40
sg27
I-40
sS'['
I3
sg28
I-40
sg29
I-40
sg30
I-40
sg31
I-40
sg32
I-40
sg33
I-40
sg34
I-40
sg35
I-40
sg36
I-40
sg37
I-40
sg38
I-40
sg39
I-40
sg40
I-40
sg41
I-40
ssI62
(dp151
S'{'
I112
ssI63
(dp152
g3
I-189
sg5
I-189
sg8
I-189
sg11
I-189
sg13
I-189
sS')'
I-189
sS'('
I-189
sS'ELLIPSIS'
p153
I-189
sS'SERIALIZER'
p154
I-189
sS'>'
I-189
sg18
I-189
sg20
I-189
sg22
I-189
sg24
I-189
sg25
I-189
sg26
I-189
sS'['
I-189
sS'IMPLEMENTS'
p155
I-189
sg30
I-189
sS'STRINGIFIER'
p156
I-189
sg31
I-189
sg33
I-189
sS'?'
I-189
sg37
I-189
sg38
I-189
sS'OR'
p157
I-189
sg41
I-189
ssI64
(dp158
g3
I-180
sg5
I-180
sg8
I-180
sg11
I-180
sg13
I-180
sS')'
I-180
sS'('
I-180
sg153
I-180
sg154
I-180
sS'>'
I-180
sg18
I-180
sg20
I-180
sg22
I-180
sg24
I-180
sg25
I-180
sg26
I-180
sS'['
I-180
sg155
I-180
sg30
I-180
sg156
I-180
sg31
I-180
sg33
I-180
sS'?'
I-180
sg37
I-180
sg38
I-180
sg157
I-180
sg41
I-180
ssI65
(dp159
g3
I-71
sg5
I-71
sg8
I-71
sg11
I-71
sg13
I-71
sS')'
I-71
sS'('
I-71
sg153
I-71
sg154
I-71
sS'>'
I-71
sg18
I-71
sg20
I-71
sg22
I-71
sg24
I-71
sg25
I-71
sg26
I-71
sS'['
I114
sg155
I-71
sg30
I-71
sg156
I-71
sg31
I-71
sg33
I-71
sS'?'
I115
sg37
I-71
sg38
I-71
sg157
I-71
sg41
I-71
ssI66
(dp160
g103
I63
sg109
I73
ssI67
(dp161
g3
I-164
sg5
I-164
sg8
I-164
sg11
I-164
sg13
I-164
sS'('
I-164
sg153
I-164
sg154
I-164
sS'>'
I-164
sg18
I-164
sg20
I-164
sg22
I-164
sg24
I-164
sg25
I-164
sg26
I-164
sg155
I-164
sg30
I-164
sg156
I-164
sg31
I-164
sg33
I-164
sg37
I-164
sg38
I-164
sg41
I-164
ssI68
(dp162
g3
I-181
sg5
I-181
sg8
I-181
sg11
I-181
sg13
I-181
sS')'
I-181
sS'('
I-181
sg153
I-181
sg154
I-181
sS'>'
I-181
sg18
I-181
sg20
I-181
sg22
I-181
sg24
I-181
sg25
I-181
sg26
I-181
sS'['
I-181
sg155
I-181
sg30
I-181
sg156
I-181
sg31
I-181
sg33
I-181
sS'?'
I-181
sg37
I-181
sg38
I-181
sg157
I-181
sg41
I-181
ssI69
(dp163
S'identifier'
p164
I117
ssI70
(dp165
g3
I-179
sg5
I-179
sg8
I-179
sg11
I-179
sg13
I-179
sS')'
I-179
sS'('
I-179
sg153
I-179
sg154
I-179
sS'>'
I-179
sg18
I-179
sg20
I-179
sg22
I-179
sg24
I-179
sg25
I-179
sg26
I-179
sS'['
I-179
sg155
I-179
sg30
I-179
sg156
I-179
sg31
I-179
sg33
I-179
sS'?'
I-179
sg37
I-179
sg38
I-179
sg157
I-179
sg41
I-179
ssI71
(dp166
g3
I-184
sg5
I-184
sg8
I-184
sg11
I-184
sg13
I-184
sS')'
I-184
sS'('
I-184
sg153
I-184
sg154
I-184
sS'>'
I-184
sg18
I-184
sg20
I-184
sg22
I-184
sg24
I-184
sg25
I-184
sg26
I-184
sS'['
I-184
sg155
I-184
sg30
I-184
sg156
I-184
sg31
I-184
sg33
I-184
sS'?'
I-184
sg37
I-184
sg38
I-184
sg157
I-184
sg41
I-184
ssI72
(dp167
g102
I78
sg103
I63
sg104
I70
sg105
I75
sS'('
I72
sg106
I64
sg107
I76
sg108
I66
sg109
I73
sg110
I85
sg111
I88
sg112
I89
sg113
I84
sg114
I68
sg115
I79
sg116
I80
sg117
I83
sS'ANY'
p168
I121
ssI73
(dp169
g3
I-192
sg5
I-192
sg8
I-192
sg11
I-192
sg13
I-192
sS')'
I-192
sS'('
I-192
sS'LONG'
p170
I123
sg153
I-192
sg154
I-192
sS'>'
I-192
sg18
I-192
sg20
I-192
sg22
I-192
sg24
I-192
sg25
I-192
sg26
I-192
sS'['
I-192
sg155
I-192
sg30
I-192
sg156
I-192
sg31
I-192
sg33
I-192
sS'?'
I-192
sg37
I-192
sg38
I-192
sg157
I-192
sg41
I-192
ssI74
(dp171
g3
I-166
sg5
I-166
sg8
I-166
sg11
I-166
sg13
I-166
sS'('
I-166
sg153
I-166
sg154
I-166
sS'>'
I-166
sg18
I-166
sg20
I-166
sg22
I-166
sg24
I-166
sg25
I-166
sg26
I-166
sg155
I-166
sg30
I-166
sg156
I-166
sg31
I-166
sg33
I-166
sg37
I-166
sg38
I-166
sg41
I-166
ssI75
(dp172
S'<'
I124
ssI76
(dp173
g3
I-177
sg5
I-177
sg8
I-177
sg11
I-177
sg13
I-177
sS')'
I-177
sS'('
I-177
sg153
I-177
sg154
I-177
sS'>'
I-177
sg18
I-177
sg20
I-177
sg22
I-177
sg24
I-177
sg25
I-177
sg26
I-177
sS'['
I-177
sg155
I-177
sg30
I-177
sg156
I-177
sg31
I-177
sg33
I-177
sS'?'
I-177
sg37
I-177
sg38
I-177
sg157
I-177
sg41
I-177
ssI77
(dp174
g3
I-188
sg5
I-188
sg8
I-188
sg11
I-188
sg13
I-188
sS')'
I-188
sS'('
I-188
sg153
I-188
sg154
I-188
sS'>'
I-188
sg18
I-188
sg20
I-188
sg22
I-188
sg24
I-188
sg25
I-188
sg26
I-188
sS'['
I-188
sg155
I-188
sg30
I-188
sg156
I-188
sg31
I-188
sg33
I-188
sS'?'
I-188
sg37
I-188
sg38
I-188
sg157
I-188
sg41
I-188
ssI78
(dp175
g3
I-178
sg5
I-178
sg8
I-178
sg11
I-178
sg13
I-178
sS')'
I-178
sS'('
I-178
sg153
I-178
sg154
I-178
sS'>'
I-178
sg18
I-178
sg20
I-178
sg22
I-178
sg24
I-178
sg25
I-178
sg26
I-178
sS'['
I-178
sg155
I-178
sg30
I-178
sg156
I-178
sg31
I-178
sg33
I-178
sS'?'
I-178
sg37
I-178
sg38
I-178
sg157
I-178
sg41
I-178
ssI79
(dp176
g3
I-182
sg5
I-182
sg8
I-182
sg11
I-182
sg13
I-182
sS')'
I-182
sS'('
I-182
sg153
I-182
sg154
I-182
sS'>'
I-182
sg18
I-182
sg20
I-182
sg22
I-182
sg24
I-182
sg25
I-182
sg26
I-182
sS'['
I-182
sg155
I-182
sg30
I-182
sg156
I-182
sg31
I-182
sg33
I-182
sS'?'
I-182
sg37
I-182
sg38
I-182
sg157
I-182
sg41
I-182
ssI80
(dp177
g3
I-176
sg5
I-176
sg8
I-176
sg11
I-176
sg13
I-176
sS')'
I-176
sS'('
I-176
sg153
I-176
sg154
I-176
sS'>'
I-176
sg18
I-176
sg20
I-176
sg22
I-176
sg24
I-176
sg25
I-176
sg26
I-176
sS'['
I-176
sg155
I-176
sg30
I-176
sg156
I-176
sg31
I-176
sg33
I-176
sS'?'
I-176
sg37
I-176
sg38
I-176
sg157
I-176
sg41
I-176
ssI81
(dp178
g3
I-71
sg5
I-71
sg8
I-71
sg11
I-71
sg13
I-71
sS')'
I-71
sS'('
I-71
sg153
I-71
sg154
I-71
sS'>'
I-71
sg18
I-71
sg20
I-71
sg22
I-71
sg24
I-71
sg25
I-71
sg26
I-71
sS'['
I114
sg155
I-71
sg30
I-71
sg156
I-71
sg31
I-71
sg33
I-71
sS'?'
I115
sg37
I-71
sg38
I-71
sg157
I-71
sg41
I-71
ssI82
(dp179
g3
I-174
sg5
I-174
sg8
I-174
sg11
I-174
sg13
I-174
sS')'
I-174
sS'('
I-174
sg153
I-174
sg154
I-174
sS'>'
I-174
sg18
I-174
sg20
I-174
sg22
I-174
sg24
I-174
sg25
I-174
sg26
I-174
sS'['
I-174
sg155
I-174
sg30
I-174
sg156
I-174
sg31
I-174
sg33
I-174
sS'?'
I-174
sg37
I-174
sg38
I-174
sg157
I-174
sg41
I-174
ssI83
(dp180
g3
I-71
sg5
I-71
sg8
I-71
sg11
I-71
sg13
I-71
sS')'
I-71
sS'('
I-71
sg153
I-71
sg154
I-71
sS'>'
I-71
sg18
I-71
sg20
I-71
sg22
I-71
sg24
I-71
sg25
I-71
sg26
I-71
sS'['
I114
sg155
I-71
sg30
I-71
sg156
I-71
sg31
I-71
sg33
I-71
sS'?'
I115
sg37
I-71
sg38
I-71
sg157
I-71
sg41
I-71
ssI84
(dp181
g3
I-186
sg5
I-186
sg8
I-186
sg11
I-186
sg13
I-186
sS')'
I-186
sS'('
I-186
sg153
I-186
sg154
I-186
sS'>'
I-186
sg18
I-186
sg20
I-186
sg22
I-186
sg24
I-186
sg25
I-186
sg26
I-186
sS'['
I-186
sg155
I-186
sg30
I-186
sg156
I-186
sg31
I-186
sg33
I-186
sS'?'
I-186
sg37
I-186
sg38
I-186
sg157
I-186
sg41
I-186
ssI85
(dp182
g3
I-185
sg5
I-185
sg8
I-185
sg11
I-185
sg13
I-185
sS')'
I-185
sS'('
I-185
sg153
I-185
sg154
I-185
sS'>'
I-185
sg18
I-185
sg20
I-185
sg22
I-185
sg24
I-185
sg25
I-185
sg26
I-185
sS'['
I-185
sg155
I-185
sg30
I-185
sg156
I-185
sg31
I-185
sg33
I-185
sS'?'
I-185
sg37
I-185
sg38
I-185
sg157
I-185
sg41
I-185
ssI86
(dp183
g3
I-173
sg5
I-173
sg8
I-173
sg11
I-173
sg13
I-173
sS')'
I-173
sS'('
I-173
sg153
I-173
sg154
I-173
sS'>'
I-173
sg18
I-173
sg20
I-173
sg22
I-173
sg24
I-173
sg25
I-173
sg26
I-173
sS'['
I-173
sg155
I-173
sg30
I-173
sg156
I-173
sg31
I-173
sg33
I-173
sS'?'
I-173
sg37
I-173
sg38
I-173
sg157
I-173
sg41
I-173
ssI87
(dp184
g3
I-194
sg5
I-194
sg8
I-194
sg11
I-194
sg13
I-194
sS')'
I-194
sS'('
I-194
sg153
I-194
sg154
I-194
sS'>'
I-194
sg18
I-194
sg20
I-194
sg22
I-194
sg24
I-194
sg25
I-194
sg26
I-194
sS'['
I127
sg155
I-194
sg30
I-194
sg156
I-194
sg31
I-194
sg33
I-194
sg37
I-194
sg38
I-194
sg157
I-194
sg41
I-194
ssI88
(dp185
g3
I-175
sg5
I-175
sg8
I-175
sg11
I-175
sg13
I-175
sS')'
I-175
sS'('
I-175
sg153
I-175
sg154
I-175
sS'>'
I-175
sg18
I-175
sg20
I-175
sg22
I-175
sg24
I-175
sg25
I-175
sg26
I-175
sS'['
I-175
sg155
I-175
sg30
I-175
sg156
I-175
sg31
I-175
sg33
I-175
sS'?'
I-175
sg37
I-175
sg38
I-175
sg157
I-175
sg41
I-175
ssI89
(dp186
g113
I84
sg110
I85
ssI90
(dp187
g18
I-93
sg30
I-93
sg20
I-93
sg22
I-93
sg3
I-93
sg33
I-93
sg35
I-93
sg36
I-93
sS'['
I-93
sg38
I-93
sg17
I-93
ssI91
(dp188
S']'
I-46
sS','
I54
ssI92
(dp189
S';'
I131
ssI93
(dp190
S'{'
I132
ssI94
(dp191
S'{'
I133
ssI95
(dp192
g102
I78
sg103
I63
sg104
I70
sg105
I75
sS'('
I72
sS'VOID'
p193
I134
sg106
I64
sg107
I76
sg108
I66
sg109
I73
sg110
I85
sg111
I88
sg112
I89
sg113
I84
sg114
I68
sg115
I79
sg116
I80
sg117
I83
sg118
I87
ssI96
(dp194
S'{'
I137
ssI97
(dp195
S';'
I138
ssI98
(dp196
g3
I-38
sg4
I-38
sg5
I-38
sg6
I-38
sg7
I-38
sg8
I-38
sg9
I-38
sg11
I-38
sg12
I-38
sg13
I-38
sS'('
I-38
sg14
I-38
sg15
I-38
sg16
I-38
sg18
I-38
sg19
I-38
sg20
I-38
sg21
I-38
sg22
I-38
sg23
I-38
sg24
I-38
sg25
I-38
sg26
I-38
sg27
I-38
sg10
I-38
sg28
I-38
sg29
I-38
sg30
I-38
sg31
I-38
sg32
I-38
sg33
I-38
sg34
I-38
sg35
I-38
sg36
I-38
sg37
I-38
sg38
I-38
sg39
I-38
sg40
I-38
sg41
I-38
ssI99
(dp197
S']'
I-46
sS','
I54
ssI100
(dp198
S')'
I140
ssI101
(dp199
S')'
I-133
sS','
I141
ssI102
(dp200
g102
I78
sg103
I63
sg104
I70
sg105
I75
sS'('
I72
sg106
I64
sg107
I76
sg108
I66
sg109
I73
sg110
I85
sg111
I88
sg112
I89
sg113
I84
sg114
I68
sg115
I79
sg116
I80
sg117
I83
sS'OPTIONAL'
p201
I144
sg118
I87
ssI103
(dp202
S')'
I-131
ssI104
(dp203
S']'
I-90
sS'|'
I146
sS','
I-90
ssI105
(dp204
S']'
I-86
sS','
I-86
ssI106
(dp205
S'('
I148
sS'|'
I149
sS']'
I-201
sS','
I-201
sS'&'
I147
ssI107
(dp206
S')'
I-23
sS';'
I-23
sS']'
I-23
sS'|'
I-23
sS','
I-23
ssI108
(dp207
S'{'
I-75
ssI109
(dp208
g3
I-40
sg4
I-40
sg5
I-40
sg6
I-40
sg7
I-40
sg8
I-40
sg9
I-40
sg10
I-40
sg11
I-40
sg12
I-40
sg13
I-40
sS'('
I-40
sg14
I-40
sg15
I-40
sg16
I-40
sg18
I-40
sg19
I-40
sg20
I-40
sg21
I-40
sg22
I-40
sg23
I-40
sg24
I-40
sg25
I-40
sg26
I-40
sg39
I-40
sg27
I-40
sS'['
I3
sg28
I-40
sg29
I-40
sg30
I-40
sg31
I-40
sg32
I-40
sg33
I-40
sg34
I-40
sg35
I-40
sg36
I-40
sg37
I-40
sg38
I-40
sS'}'
I-43
sg40
I-40
sg41
I-40
ssI110
(dp209
S'}'
I152
ssI111
(dp210
S'string'
p211
I153
ssI112
(dp212
g3
I-40
sg4
I-40
sg5
I-40
sg6
I-40
sg7
I-40
sg8
I-40
sg9
I-40
sg10
I-40
sg11
I-40
sg12
I-40
sg13
I-40
sS'('
I-40
sg14
I-40
sg15
I-40
sg16
I-40
sg18
I-40
sg19
I-40
sg20
I-40
sg21
I-40
sg22
I-40
sg23
I-40
sg24
I-40
sg25
I-40
sg26
I-40
sg39
I-40
sg27
I-40
sS'['
I3
sg28
I-40
sg29
I-40
sg30
I-40
sg31
I-40
sg32
I-40
sg33
I-40
sg34
I-40
sS'error'
p213
I156
sg36
I-40
sg37
I-40
sg38
I-40
sS'}'
I-68
sg40
I-40
sg41
I-40
ssI113
(dp214
g3
I-168
sg5
I-168
sg8
I-168
sg11
I-168
sg13
I-168
sS')'
I-168
sS'('
I-168
sg153
I-168
sg154
I-168
sS'>'
I-168
sg18
I-168
sg20
I-168
sg22
I-168
sg24
I-168
sg25
I-168
sg26
I-168
sg155
I-168
sg30
I-168
sg156
I-168
sg31
I-168
sg33
I-168
sg37
I-168
sg38
I-168
sg157
I-168
sg41
I-168
ssI114
(dp215
S']'
I157
ssI115
(dp216
g3
I-194
sg5
I-194
sg8
I-194
sg11
I-194
sg13
I-194
sS')'
I-194
sS'('
I-194
sg153
I-194
sg154
I-194
sS'>'
I-194
sg18
I-194
sg20
I-194
sg22
I-194
sg24
I-194
sg25
I-194
sg26
I-194
sS'['
I127
sg155
I-194
sg30
I-194
sg156
I-194
sg31
I-194
sg33
I-194
sg37
I-194
sg38
I-194
sg157
I-194
sg41
I-194
ssI116
(dp217
g3
I-187
sg5
I-187
sg8
I-187
sg11
I-187
sg13
I-187
sS')'
I-187
sS'('
I-187
sg153
I-187
sg154
I-187
sS'>'
I-187
sg18
I-187
sg20
I-187
sg22
I-187
sg24
I-187
sg25
I-187
sg26
I-187
sS'['
I-187
sg155
I-187
sg30
I-187
sg156
I-187
sg31
I-187
sg33
I-187
sS'?'
I-187
sg37
I-187
sg38
I-187
sg157
I-187
sg41
I-187
ssI117
(dp218
S';'
I159
ssI118
(dp219
g3
I-71
sg5
I-71
sg8
I-71
sg11
I-71
sg13
I-71
sS')'
I-71
sS'('
I-71
sg153
I-71
sg154
I-71
sS'>'
I-71
sg18
I-71
sg20
I-71
sg22
I-71
sg24
I-71
sg25
I-71
sg26
I-71
sS'['
I114
sg155
I-71
sg30
I-71
sg156
I-71
sg31
I-71
sg33
I-71
sS'?'
I115
sg37
I-71
sg38
I-71
sg157
I-71
sg41
I-71
ssI119
(dp220
S'OR'
p221
I161
ssI120
(dp222
S')'
I-59
sg157
I-59
ssI121
(dp223
S'['
I162
ssI122
(dp224
g3
I-190
sg5
I-190
sg8
I-190
sg11
I-190
sg13
I-190
sS')'
I-190
sS'('
I-190
sg153
I-190
sg154
I-190
sS'>'
I-190
sg18
I-190
sg20
I-190
sg22
I-190
sg24
I-190
sg25
I-190
sg26
I-190
sS'['
I-190
sg155
I-190
sg30
I-190
sg156
I-190
sg31
I-190
sg33
I-190
sS'?'
I-190
sg37
I-190
sg38
I-190
sg157
I-190
sg41
I-190
ssI123
(dp225
g3
I-191
sg5
I-191
sg8
I-191
sg11
I-191
sg13
I-191
sS')'
I-191
sS'('
I-191
sg153
I-191
sg154
I-191
sS'>'
I-191
sg18
I-191
sg20
I-191
sg22
I-191
sg24
I-191
sg25
I-191
sg26
I-191
sS'['
I-191
sg155
I-191
sg30
I-191
sg156
I-191
sg31
I-191
sg33
I-191
sS'?'
I-191
sg37
I-191
sg38
I-191
sg157
I-191
sg41
I-191
ssI124
(dp226
g102
I78
sg103
I63
sg104
I70
sg105
I75
sS'('
I72
sg106
I64
sg107
I76
sg108
I66
sg109
I73
sg110
I85
sg111
I88
sg112
I89
sg113
I84
sg114
I68
sg115
I79
sg116
I80
sg117
I83
sg118
I87
ssI125
(dp227
g3
I-165
sg5
I-165
sg8
I-165
sg11
I-165
sg13
I-165
sS'('
I-165
sg153
I-165
sg154
I-165
sS'>'
I-165
sg18
I-165
sg20
I-165
sg22
I-165
sg24
I-165
sg25
I-165
sg26
I-165
sg155
I-165
sg30
I-165
sg156
I-165
sg31
I-165
sg33
I-165
sg37
I-165
sg38
I-165
sg41
I-165
ssI126
(dp228
g3
I-169
sg5
I-169
sg8
I-169
sg11
I-169
sg13
I-169
sS')'
I-169
sS'('
I-169
sg153
I-169
sg154
I-169
sS'>'
I-169
sg18
I-169
sg20
I-169
sg22
I-169
sg24
I-169
sg25
I-169
sg26
I-169
sg155
I-169
sg30
I-169
sg156
I-169
sg31
I-169
sg33
I-169
sg37
I-169
sg38
I-169
sg157
I-169
sg41
I-169
ssI127
(dp229
S']'
I164
ssI128
(dp230
g3
I-167
sg5
I-167
sg8
I-167
sg11
I-167
sg13
I-167
sS'('
I-167
sg153
I-167
sg154
I-167
sS'>'
I-167
sg18
I-167
sg20
I-167
sg22
I-167
sg24
I-167
sg25
I-167
sg26
I-167
sg155
I-167
sg30
I-167
sg156
I-167
sg31
I-167
sg33
I-167
sg37
I-167
sg38
I-167
sg41
I-167
ssI129
(dp231
g3
I-183
sg5
I-183
sg8
I-183
sg11
I-183
sg13
I-183
sS')'
I-183
sS'('
I-183
sg153
I-183
sg154
I-183
sS'>'
I-183
sg18
I-183
sg20
I-183
sg22
I-183
sg24
I-183
sg25
I-183
sg26
I-183
sS'['
I-183
sg155
I-183
sg30
I-183
sg156
I-183
sg31
I-183
sg33
I-183
sS'?'
I-183
sg37
I-183
sg38
I-183
sg157
I-183
sg41
I-183
ssI130
(dp232
S']'
I165
ssI131
(dp233
g18
I-55
sg30
I-55
sg20
I-55
sg22
I-55
sg3
I-55
sg33
I-55
sg35
I-55
sg36
I-55
sS'['
I-55
sg38
I-55
sg17
I-55
ssI132
(dp234
g3
I-40
sg4
I-40
sg5
I-40
sg6
I-40
sg7
I-40
sg8
I-40
sg9
I-40
sg10
I-40
sg11
I-40
sg12
I-40
sg13
I-40
sS'('
I-40
sg14
I-40
sg15
I-40
sg16
I-40
sg18
I-40
sg19
I-40
sg20
I-40
sg21
I-40
sg22
I-40
sg23
I-40
sg24
I-40
sg25
I-40
sg26
I-40
sg39
I-40
sg27
I-40
sS'['
I3
sg28
I-40
sg29
I-40
sg30
I-40
sg31
I-40
sg32
I-40
sg33
I-40
sg34
I-40
sg35
I-40
sg36
I-40
sg37
I-40
sg38
I-40
sS'}'
I-43
sg40
I-40
sg41
I-40
ssI133
(dp235
g3
I-40
sg4
I-40
sg5
I-40
sg6
I-40
sg7
I-40
sg8
I-40
sg9
I-40
sg10
I-40
sg11
I-40
sg12
I-40
sg13
I-40
sS'('
I-40
sg14
I-40
sg15
I-40
sg16
I-40
sg18
I-40
sg19
I-40
sg20
I-40
sg21
I-40
sg22
I-40
sg23
I-40
sg24
I-40
sg25
I-40
sg26
I-40
sg39
I-40
sg27
I-40
sS'['
I3
sg28
I-40
sg29
I-40
sg30
I-40
sg31
I-40
sg32
I-40
sg33
I-40
sg34
I-40
sg35
I-40
sg36
I-40
sg37
I-40
sg38
I-40
sS'}'
I-33
sg40
I-40
sg41
I-40
ssI134
(dp236
S'('
I-198
sg38
I-198
ssI135
(dp237
S'('
I-197
sg38
I-197
ssI136
(dp238
S'('
I169
ssI137
(dp239
g3
I-40
sg4
I-40
sg5
I-40
sg6
I-40
sg7
I-40
sg8
I-40
sg9
I-40
sg10
I-40
sg11
I-40
sg12
I-40
sg13
I-40
sS'('
I-40
sg14
I-40
sg15
I-40
sg16
I-40
sg18
I-40
sg19
I-40
sg20
I-40
sg21
I-40
sg22
I-40
sg23
I-40
sg24
I-40
sg25
I-40
sg26
I-40
sg39
I-40
sg27
I-40
sS'['
I3
sg28
I-40
sg29
I-40
sg30
I-40
sg31
I-40
sg32
I-40
sg33
I-40
sg34
I-40
sg35
I-40
sg36
I-40
sg37
I-40
sg38
I-40
sS'}'
I-33
sg40
I-40
sg41
I-40
ssI138
(dp240
g18
I-94
sg30
I-94
sg20
I-94
sg22
I-94
sg3
I-94
sg33
I-94
sg35
I-94
sg36
I-94
sS'['
I-94
sg38
I-94
sg17
I-94
ssI139
(dp241
S']'
I-44
ssI140
(dp242
S']'
I-200
sS','
I-200
ssI141
(dp243
g3
I-40
sg4
I-40
sg5
I-40
sg6
I-40
sg7
I-40
sg8
I-40
sg9
I-40
sg10
I-40
sg11
I-40
sg12
I-40
sg13
I-40
sS'('
I-40
sg14
I-40
sg15
I-40
sg16
I-40
sg18
I-40
sg19
I-40
sg20
I-40
sg21
I-40
sg22
I-40
sg23
I-40
sg24
I-40
sg25
I-40
sg26
I-40
sg27
I-40
sS'['
I3
sg28
I-40
sg29
I-40
sg30
I-40
sg31
I-40
sg32
I-40
sg33
I-40
sg34
I-40
sg35
I-40
sg36
I-40
sg37
I-40
sg38
I-40
sg39
I-40
sg40
I-40
sg41
I-40
ssI142
(dp244
S')'
I-129
ssI143
(dp245
g155
I-140
sg30
I-140
sg3
I-140
sg5
I-140
sg156
I-140
sg20
I-140
sg13
I-140
sg31
I-140
sg22
I-140
sg18
I-140
sg24
I-140
sg25
I-140
sg33
I-140
sg26
I-140
sg8
I-140
sg154
I-140
sS'ELLIPSIS'
p246
I173
sg37
I-140
sg38
I-140
sg41
I-140
sg11
I-140
ssI144
(dp247
g102
I78
sg103
I63
sg104
I70
sg105
I75
sS'('
I72
sg106
I64
sg107
I76
sg108
I66
sg109
I73
sg110
I85
sg111
I88
sg112
I89
sg113
I84
sg114
I68
sg115
I79
sg116
I80
sg117
I83
sg118
I87
ssI145
(dp248
S')'
I-134
sS','
I-134
ssI146
(dp249
g144
I107
ssI147
(dp250
S'identifier'
p251
I176
ssI148
(dp252
g3
I-40
sg4
I-40
sg5
I-40
sg6
I-40
sg7
I-40
sg8
I-40
sg9
I-40
sg10
I-40
sg11
I-40
sg12
I-40
sg13
I-40
sS')'
I-130
sS'('
I-40
sg14
I-40
sg15
I-40
sg16
I-40
sg18
I-40
sg19
I-40
sg20
I-40
sg21
I-40
sg22
I-40
sg23
I-40
sg24
I-40
sg25
I-40
sg26
I-40
sg27
I-40
sS'['
I3
sg28
I-40
sg29
I-40
sg30
I-40
sg31
I-40
sg32
I-40
sg33
I-40
sg34
I-40
sg141
I103
sg36
I-40
sg37
I-40
sg38
I-40
sg39
I-40
sg40
I-40
sg41
I-40
ssI149
(dp253
S'identifier'
p254
I179
ssI150
(dp255
S'}'
I181
ssI151
(dp256
g102
I78
sg103
I63
sg104
I70
sg105
I75
sS'('
I72
sg106
I64
sg107
I76
sg108
I66
sg109
I73
sg110
I85
sg111
I88
sg112
I89
sg113
I84
sg114
I68
sg115
I79
sg116
I80
sg117
I83
sg118
I87
ssI152
(dp257
S';'
I184
ssI153
(dp258
S'}'
I-85
sS','
I185
ssI154
(dp259
S'}'
I187
ssI155
(dp260
g103
I63
sS'CONST'
p261
I191
sg106
I64
sg114
I68
sg104
I70
sS'('
I72
sg108
I66
sg109
I73
sg16
I-112
sg105
I75
sg107
I76
sS'INHERIT'
p262
I195
sg115
I79
sg116
I80
sg117
I83
sg31
I-112
sg110
I85
sg111
I88
sS'error'
p263
I197
sg112
I89
sg102
I78
sg113
I84
sg118
I87
ssI156
(dp264
S'}'
I-72
ssI157
(dp265
g3
I-71
sg5
I-71
sg8
I-71
sg11
I-71
sg13
I-71
sS')'
I-71
sS'('
I-71
sg153
I-71
sg154
I-71
sS'>'
I-71
sg18
I-71
sg20
I-71
sg22
I-71
sg24
I-71
sg25
I-71
sg26
I-71
sS'['
I114
sg155
I-71
sg30
I-71
sg156
I-71
sg31
I-71
sg33
I-71
sS'?'
I115
sg37
I-71
sg38
I-71
sg157
I-71
sg41
I-71
ssI158
(dp266
g3
I-70
sg5
I-70
sg8
I-70
sg11
I-70
sg13
I-70
sS')'
I-70
sS'('
I-70
sg153
I-70
sg154
I-70
sS'>'
I-70
sg18
I-70
sg20
I-70
sg22
I-70
sg24
I-70
sg25
I-70
sg26
I-70
sg155
I-70
sg30
I-70
sg156
I-70
sg31
I-70
sg33
I-70
sg37
I-70
sg38
I-70
sg157
I-70
sg41
I-70
ssI159
(dp267
g18
I-92
sg30
I-92
sg20
I-92
sg22
I-92
sg3
I-92
sg33
I-92
sg35
I-92
sg36
I-92
sS'['
I-92
sg38
I-92
sg17
I-92
ssI160
(dp268
S')'
I-60
sg157
I-60
ssI161
(dp269
g102
I78
sg103
I63
sg104
I70
sg105
I75
sS'('
I72
sg106
I64
sg107
I76
sg108
I66
sg109
I73
sg110
I85
sg111
I88
sg112
I89
sg113
I84
sg114
I68
sg115
I79
sg116
I80
sg117
I83
sg168
I121
ssI162
(dp270
S']'
I200
ssI163
(dp271
S'>'
I201
ssI164
(dp272
g3
I-71
sg5
I-71
sg8
I-71
sg11
I-71
sg13
I-71
sS')'
I-71
sS'('
I-71
sg153
I-71
sg154
I-71
sS'>'
I-71
sg18
I-71
sg20
I-71
sg22
I-71
sg24
I-71
sg25
I-71
sg26
I-71
sS'['
I114
sg155
I-71
sg30
I-71
sg156
I-71
sg31
I-71
sg33
I-71
sS'?'
I115
sg37
I-71
sg38
I-71
sg157
I-71
sg41
I-71
ssI165
(dp273
g38
I-143
sg4
I-143
sg12
I-143
sg21
I-143
sS'('
I-143
sg7
I-143
sg23
I-143
sg14
I-143
sg15
I-143
sg32
I-143
sg34
I-143
sg37
I-143
sg39
I-143
sg9
I-143
sg27
I-143
sg10
I-143
sg29
I-143
sg40
I-143
ssI166
(dp274
S'}'
I203
ssI167
(dp275
S'}'
I204
ssI168
(dp276
g103
I63
sg261
I191
sg193
I134
sg106
I64
sS'STATIC'
p277
I206
sg114
I68
sS'SETTER'
p278
I208
sg104
I70
sS'CREATOR'
p279
I209
sS'('
I72
sg108
I66
sg109
I73
sg16
I-112
sg105
I75
sg107
I76
sg262
I195
sS'LEGACYCALLER'
p280
I216
sS'GETTER'
p281
I213
sg115
I79
sg116
I80
sg117
I83
sg31
I-112
sg110
I85
sg111
I88
sg113
I84
sg112
I89
sg102
I78
sg118
I87
sS'DELETER'
p282
I218
ssI169
(dp283
g3
I-40
sg4
I-40
sg5
I-40
sg6
I-40
sg7
I-40
sg8
I-40
sg9
I-40
sg10
I-40
sg11
I-40
sg12
I-40
sg13
I-40
sS')'
I-130
sS'('
I-40
sg14
I-40
sg15
I-40
sg16
I-40
sg18
I-40
sg19
I-40
sg20
I-40
sg21
I-40
sg22
I-40
sg23
I-40
sg24
I-40
sg25
I-40
sg26
I-40
sg27
I-40
sS'['
I3
sg28
I-40
sg29
I-40
sg30
I-40
sg31
I-40
sg32
I-40
sg33
I-40
sg34
I-40
sg141
I103
sg36
I-40
sg37
I-40
sg38
I-40
sg39
I-40
sg40
I-40
sg41
I-40
ssI170
(dp284
S'}'
I221
ssI171
(dp285
S')'
I-133
sS','
I141
ssI172
(dp286
S'IMPLEMENTS'
p287
I236
sS'EXCEPTION'
p288
I223
sS'CONST'
p289
I224
sS'STRINGIFIER'
p290
I238
sS'DICTIONARY'
p291
I231
sS'CREATOR'
p292
I227
sS'ATTRIBUTE'
p293
I239
sS'ENUM'
p294
I232
sS'TYPEDEF'
p295
I230
sS'INHERIT'
p296
I233
sS'LEGACYCALLER'
p297
I234
sS'CALLBACK'
p298
I241
sS'GETTER'
p299
I235
sS'STATIC'
p300
I225
sS'SERIALIZER'
p301
I229
sS'PARTIAL'
p302
I237
sS'UNRESTRICTED'
p303
I242
sS'identifier'
p304
I243
sS'DELETER'
p305
I244
sS'SETTER'
p306
I226
ssI173
(dp307
g155
I-139
sg3
I-139
sg5
I-139
sg156
I-139
sg20
I-139
sg13
I-139
sg31
I-139
sg22
I-139
sg18
I-139
sg24
I-139
sg25
I-139
sg33
I-139
sg26
I-139
sg8
I-139
sg154
I-139
sg30
I-139
sg37
I-139
sg38
I-139
sg41
I-139
sg11
I-139
ssI174
(dp308
g287
I236
sg288
I223
sg289
I224
sg290
I238
sg291
I231
sg292
I227
sg293
I239
sg294
I232
sg295
I230
sg296
I233
sg297
I234
sg298
I241
sg299
I235
sg300
I225
sg301
I229
sg302
I237
sg303
I242
sg304
I243
sg305
I244
sg306
I226
ssI175
(dp309
S']'
I-89
sS','
I-89
ssI176
(dp310
S']'
I-78
sS','
I-78
sS'&'
I246
ssI177
(dp311
S']'
I-73
sS','
I-73
ssI178
(dp312
S')'
I247
ssI179
(dp313
S']'
I-82
sS'|'
I248
sS','
I-82
ssI180
(dp314
S']'
I-74
sS','
I-74
ssI181
(dp315
S';'
I249
ssI182
(dp316
S'identifier'
p317
I250
ssI183
(dp318
g3
I-40
sg4
I-40
sg5
I-40
sg6
I-40
sg7
I-40
sg8
I-40
sg9
I-40
sg10
I-40
sg11
I-40
sg12
I-40
sg13
I-40
sS'('
I-40
sg14
I-40
sg15
I-40
sg16
I-40
sg18
I-40
sg19
I-40
sg20
I-40
sg21
I-40
sg22
I-40
sg23
I-40
sg24
I-40
sg25
I-40
sg26
I-40
sg39
I-40
sg27
I-40
sS'['
I3
sg28
I-40
sg29
I-40
sg30
I-40
sg31
I-40
sg32
I-40
sg33
I-40
sg34
I-40
sg35
I-40
sg36
I-40
sg37
I-40
sg38
I-40
sS'}'
I-43
sg40
I-40
sg41
I-40
ssI184
(dp319
g18
I-79
sg30
I-79
sg20
I-79
sg22
I-79
sg3
I-79
sg33
I-79
sg35
I-79
sg36
I-79
sS'['
I-79
sg38
I-79
sg17
I-79
ssI185
(dp320
g3
I-40
sg4
I-40
sg5
I-40
sg6
I-40
sg7
I-40
sg8
I-40
sg9
I-40
sg10
I-40
sg11
I-40
sg12
I-40
sg13
I-40
sS'('
I-40
sg14
I-40
sg15
I-40
sg16
I-40
sg18
I-40
sg19
I-40
sg20
I-40
sg21
I-40
sg22
I-40
sg23
I-40
sg24
I-40
sg25
I-40
sg26
I-40
sg39
I-40
sg27
I-40
sS'['
I3
sg28
I-40
sg29
I-40
sg30
I-40
sg31
I-40
sg32
I-40
sg33
I-40
sg34
I-40
sg35
I-40
sg36
I-40
sg37
I-40
sg38
I-40
sS'}'
I-88
sg40
I-40
sg41
I-40
ssI186
(dp321
S'}'
I-83
ssI187
(dp322
S';'
I254
ssI188
(dp323
g4
I-27
sg5
I-27
sg7
I-27
sg9
I-27
sg10
I-27
sg12
I-27
sS'('
I-27
sg14
I-27
sg15
I-27
sg16
I-27
sg21
I-27
sg23
I-27
sg24
I-27
sg27
I-27
sS'['
I-27
sg29
I-27
sg31
I-27
sg32
I-27
sS'}'
I-27
sg34
I-27
sg35
I-27
sg37
I-27
sg38
I-27
sg39
I-27
sg40
I-27
ssI189
(dp324
g4
I-30
sg5
I-30
sg7
I-30
sg9
I-30
sg10
I-30
sg12
I-30
sS'('
I-30
sg14
I-30
sg15
I-30
sg16
I-30
sg21
I-30
sg23
I-30
sg24
I-30
sg27
I-30
sS'['
I-30
sg29
I-30
sg31
I-30
sg32
I-30
sS'}'
I-30
sg34
I-30
sg35
I-30
sg37
I-30
sg38
I-30
sg39
I-30
sg40
I-30
ssI190
(dp325
g4
I-28
sg5
I-28
sg7
I-28
sg9
I-28
sg10
I-28
sg12
I-28
sS'('
I-28
sg14
I-28
sg15
I-28
sg16
I-28
sg21
I-28
sg23
I-28
sg24
I-28
sg27
I-28
sS'['
I-28
sg29
I-28
sg31
I-28
sg32
I-28
sS'}'
I-28
sg34
I-28
sg35
I-28
sg37
I-28
sg38
I-28
sg39
I-28
sg40
I-28
ssI191
(dp326
g102
I78
sg103
I63
sg104
I70
sg113
I84
sg106
I64
sg107
I76
sg108
I66
sg109
I73
sg110
I85
sg111
I88
sg114
I68
sg115
I79
sg116
I80
sS'identifier'
p327
I256
sg112
I89
ssI192
(dp328
S'identifier'
p329
I258
ssI193
(dp330
g3
I-40
sg4
I-40
sg5
I-40
sg6
I-40
sg7
I-40
sg8
I-40
sg9
I-40
sg10
I-40
sg11
I-40
sg12
I-40
sg13
I-40
sS'('
I-40
sg14
I-40
sg15
I-40
sg16
I-40
sg18
I-40
sg19
I-40
sg20
I-40
sg21
I-40
sg22
I-40
sg23
I-40
sg24
I-40
sg25
I-40
sg26
I-40
sg39
I-40
sg27
I-40
sS'['
I3
sg28
I-40
sg29
I-40
sg30
I-40
sg31
I-40
sg32
I-40
sg33
I-40
sg34
I-40
sg213
I156
sg36
I-40
sg37
I-40
sg38
I-40
sS'}'
I-68
sg40
I-40
sg41
I-40
ssI194
(dp331
g31
I-114
sS'READONLY'
p332
I261
ssI195
(dp333
g31
I-111
sg16
I-111
ssI196
(dp334
g4
I-29
sg5
I-29
sg7
I-29
sg9
I-29
sg10
I-29
sg12
I-29
sS'('
I-29
sg14
I-29
sg15
I-29
sg16
I-29
sg21
I-29
sg23
I-29
sg24
I-29
sg27
I-29
sS'['
I-29
sg29
I-29
sg31
I-29
sg32
I-29
sS'}'
I-29
sg34
I-29
sg35
I-29
sg37
I-29
sg38
I-29
sg39
I-29
sg40
I-29
ssI197
(dp335
g4
I-142
sg5
I-142
sg7
I-142
sg9
I-142
sg10
I-142
sg12
I-142
sS'('
I-142
sg14
I-142
sg15
I-142
sg16
I-142
sg21
I-142
sg23
I-142
sg24
I-142
sg27
I-142
sS'['
I-142
sg29
I-142
sg31
I-142
sg32
I-142
sS'}'
I-142
sg34
I-142
sg35
I-142
sg37
I-142
sg38
I-142
sg39
I-142
sg40
I-142
ssI198
(dp336
g3
I-69
sg5
I-69
sg8
I-69
sg11
I-69
sg13
I-69
sS')'
I-69
sS'('
I-69
sg153
I-69
sg154
I-69
sS'>'
I-69
sg18
I-69
sg20
I-69
sg22
I-69
sg24
I-69
sg25
I-69
sg26
I-69
sg155
I-69
sg30
I-69
sg156
I-69
sg31
I-69
sg33
I-69
sg37
I-69
sg38
I-69
sg157
I-69
sg41
I-69
ssI199
(dp337
S')'
I-65
sS'OR'
p338
I263
ssI200
(dp339
g3
I-71
sg5
I-71
sg8
I-71
sg11
I-71
sg13
I-71
sS')'
I-71
sS'('
I-71
sg153
I-71
sg154
I-71
sS'>'
I-71
sg18
I-71
sg20
I-71
sg22
I-71
sg24
I-71
sg25
I-71
sg26
I-71
sS'['
I114
sg155
I-71
sg30
I-71
sg156
I-71
sg31
I-71
sg33
I-71
sS'?'
I115
sg37
I-71
sg38
I-71
sg157
I-71
sg41
I-71
ssI201
(dp340
g3
I-196
sg5
I-196
sg8
I-196
sg11
I-196
sg13
I-196
sS')'
I-196
sS'('
I-196
sg153
I-196
sg154
I-196
sS'>'
I-196
sg18
I-196
sg20
I-196
sg22
I-196
sg24
I-196
sg25
I-196
sg26
I-196
sg155
I-196
sg30
I-196
sg156
I-196
sg31
I-196
sg33
I-196
sS'?'
I267
sg37
I-196
sg38
I-196
sg157
I-196
sg41
I-196
ssI202
(dp341
g3
I-193
sg5
I-193
sg8
I-193
sg11
I-193
sg13
I-193
sS')'
I-193
sS'('
I-193
sg153
I-193
sg154
I-193
sS'>'
I-193
sg18
I-193
sg20
I-193
sg22
I-193
sg24
I-193
sg25
I-193
sg26
I-193
sg155
I-193
sg30
I-193
sg156
I-193
sg31
I-193
sg33
I-193
sg37
I-193
sg38
I-193
sg157
I-193
sg41
I-193
ssI203
(dp342
S';'
I268
ssI204
(dp343
S';'
I269
ssI205
(dp344
g3
I-40
sg4
I-40
sg5
I-40
sg6
I-40
sg7
I-40
sg8
I-40
sg9
I-40
sg10
I-40
sg11
I-40
sg12
I-40
sg13
I-40
sS'('
I-40
sg14
I-40
sg15
I-40
sg16
I-40
sg18
I-40
sg19
I-40
sg20
I-40
sg21
I-40
sg22
I-40
sg23
I-40
sg24
I-40
sg25
I-40
sg26
I-40
sg39
I-40
sg27
I-40
sS'['
I3
sg28
I-40
sg29
I-40
sg30
I-40
sg31
I-40
sg32
I-40
sg33
I-40
sg34
I-40
sg35
I-40
sg36
I-40
sg37
I-40
sg38
I-40
sS'}'
I-33
sg40
I-40
sg41
I-40
ssI206
(dp345
g102
I78
sg103
I63
sg104
I70
sg105
I75
sS'('
I72
sg193
I134
sg106
I64
sg107
I76
sg108
I66
sg109
I73
sg110
I85
sg332
I261
sg111
I88
sg112
I89
sg31
I-114
sg114
I68
sg115
I79
sg116
I80
sg117
I83
sg113
I84
sg118
I87
ssI207
(dp346
g4
I-35
sg5
I-35
sg6
I-35
sg7
I-35
sg8
I-35
sg9
I-35
sg10
I-35
sg11
I-35
sg12
I-35
sg13
I-35
sS'('
I-35
sg14
I-35
sg15
I-35
sg16
I-35
sg21
I-35
sg23
I-35
sg24
I-35
sg25
I-35
sg26
I-35
sg27
I-35
sS'['
I-35
sg38
I-35
sg31
I-35
sg32
I-35
sg34
I-35
sg39
I-35
sg37
I-35
sg29
I-35
sS'}'
I-35
sg40
I-35
sg41
I-35
ssI208
(dp347
g4
I-121
sg6
I-121
sg7
I-121
sg9
I-121
sg11
I-121
sg12
I-121
sg13
I-121
sS'('
I-121
sg14
I-121
sg15
I-121
sg21
I-121
sg23
I-121
sg25
I-121
sg26
I-121
sg27
I-121
sg10
I-121
sg38
I-121
sg39
I-121
sg32
I-121
sg34
I-121
sg37
I-121
sg29
I-121
sg40
I-121
sg41
I-121
ssI209
(dp348
g4
I-122
sg6
I-122
sg7
I-122
sg9
I-122
sg11
I-122
sg12
I-122
sg13
I-122
sS'('
I-122
sg14
I-122
sg15
I-122
sg21
I-122
sg23
I-122
sg25
I-122
sg26
I-122
sg27
I-122
sg10
I-122
sg38
I-122
sg39
I-122
sg32
I-122
sg34
I-122
sg37
I-122
sg29
I-122
sg40
I-122
sg41
I-122
ssI210
(dp349
g4
I-116
sg5
I-116
sg6
I-116
sg7
I-116
sg8
I-116
sg9
I-116
sg10
I-116
sg11
I-116
sg12
I-116
sg13
I-116
sS'('
I-116
sg14
I-116
sg15
I-116
sg16
I-116
sg21
I-116
sg23
I-116
sg24
I-116
sg25
I-116
sg26
I-116
sg27
I-116
sS'['
I-116
sg38
I-116
sg31
I-116
sg32
I-116
sg34
I-116
sg39
I-116
sg37
I-116
sg29
I-116
sS'}'
I-116
sg40
I-116
sg41
I-116
ssI211
(dp350
g4
I-36
sg5
I-36
sg6
I-36
sg7
I-36
sg8
I-36
sg9
I-36
sg10
I-36
sg11
I-36
sg12
I-36
sg13
I-36
sS'('
I-36
sg14
I-36
sg15
I-36
sg16
I-36
sg21
I-36
sg23
I-36
sg24
I-36
sg25
I-36
sg26
I-36
sg27
I-36
sS'['
I-36
sg38
I-36
sg31
I-36
sg32
I-36
sg34
I-36
sg39
I-36
sg37
I-36
sg29
I-36
sS'}'
I-36
sg40
I-36
sg41
I-36
ssI212
(dp351
g4
I-105
sg5
I-105
sg6
I-105
sg7
I-105
sg8
I-105
sg9
I-105
sg10
I-105
sg11
I-105
sg12
I-105
sg13
I-105
sS'('
I-105
sg14
I-105
sg15
I-105
sg16
I-105
sg21
I-105
sg23
I-105
sg24
I-105
sg25
I-105
sg26
I-105
sg27
I-105
sS'['
I-105
sg38
I-105
sg31
I-105
sg32
I-105
sg34
I-105
sg39
I-105
sg37
I-105
sg29
I-105
sS'}'
I-105
sg40
I-105
sg41
I-105
ssI213
(dp352
g4
I-120
sg6
I-120
sg7
I-120
sg9
I-120
sg11
I-120
sg12
I-120
sg13
I-120
sS'('
I-120
sg14
I-120
sg15
I-120
sg21
I-120
sg23
I-120
sg25
I-120
sg26
I-120
sg27
I-120
sg10
I-120
sg38
I-120
sg39
I-120
sg32
I-120
sg34
I-120
sg37
I-120
sg29
I-120
sg40
I-120
sg41
I-120
ssI214
(dp353
S'('
I-128
sS'identifier'
p354
I277
ssI215
(dp355
g4
I-103
sg5
I-103
sg6
I-103
sg7
I-103
sg8
I-103
sg9
I-103
sg10
I-103
sg11
I-103
sg12
I-103
sg13
I-103
sS'('
I-103
sg14
I-103
sg15
I-103
sg16
I-103
sg21
I-103
sg23
I-103
sg24
I-103
sg25
I-103
sg26
I-103
sg27
I-103
sS'['
I-103
sg38
I-103
sg31
I-103
sg32
I-103
sg34
I-103
sg39
I-103
sg37
I-103
sg29
I-103
sS'}'
I-103
sg40
I-103
sg41
I-103
ssI216
(dp356
g4
I-124
sg6
I-124
sg7
I-124
sg9
I-124
sg11
I-124
sg12
I-124
sg13
I-124
sS'('
I-124
sg14
I-124
sg15
I-124
sg21
I-124
sg23
I-124
sg25
I-124
sg26
I-124
sg27
I-124
sg10
I-124
sg38
I-124
sg39
I-124
sg32
I-124
sg34
I-124
sg37
I-124
sg29
I-124
sg40
I-124
sg41
I-124
ssI217
(dp357
g4
I-104
sg5
I-104
sg6
I-104
sg7
I-104
sg8
I-104
sg9
I-104
sg10
I-104
sg11
I-104
sg12
I-104
sg13
I-104
sS'('
I-104
sg14
I-104
sg15
I-104
sg16
I-104
sg21
I-104
sg23
I-104
sg24
I-104
sg25
I-104
sg26
I-104
sg27
I-104
sS'['
I-104
sg38
I-104
sg31
I-104
sg32
I-104
sg34
I-104
sg39
I-104
sg37
I-104
sg29
I-104
sS'}'
I-104
sg40
I-104
sg41
I-104
ssI218
(dp358
g4
I-123
sg6
I-123
sg7
I-123
sg9
I-123
sg11
I-123
sg12
I-123
sg13
I-123
sS'('
I-123
sg14
I-123
sg15
I-123
sg21
I-123
sg23
I-123
sg25
I-123
sg26
I-123
sg27
I-123
sg10
I-123
sg38
I-123
sg39
I-123
sg32
I-123
sg34
I-123
sg37
I-123
sg29
I-123
sg40
I-123
sg41
I-123
ssI219
(dp359
g4
I-119
sg6
I-119
sg7
I-119
sg9
I-119
sg278
I208
sg12
I-119
sg279
I209
sS'('
I-119
sg14
I-119
sg15
I-119
sg21
I-119
sg23
I-119
sg280
I216
sg281
I213
sg27
I-119
sg10
I-119
sg29
I-119
sg39
I-119
sg32
I-119
sg34
I-119
sg37
I-119
sg38
I-119
sg40
I-119
sg282
I218
ssI220
(dp360
S')'
I280
ssI221
(dp361
S';'
I281
ssI222
(dp362
S')'
I-132
ssI223
(dp363
S')'
I-152
sS'='
I-152
sS','
I-152
ssI224
(dp364
S')'
I-147
sS'='
I-147
sS','
I-147
ssI225
(dp365
S')'
I-160
sS'='
I-160
sS','
I-160
ssI226
(dp366
S')'
I-159
sS'='
I-159
sS','
I-159
ssI227
(dp367
S')'
I-148
sS'='
I-148
sS','
I-148
ssI228
(dp368
S')'
I-136
sS','
I-136
ssI229
(dp369
S')'
I-158
sS'='
I-158
sS','
I-158
ssI230
(dp370
S')'
I-162
sS'='
I-162
sS','
I-162
ssI231
(dp371
S')'
I-150
sS'='
I-150
sS','
I-150
ssI232
(dp372
S')'
I-151
sS'='
I-151
sS','
I-151
ssI233
(dp373
S')'
I-155
sS'='
I-155
sS','
I-155
ssI234
(dp374
S')'
I-156
sS'='
I-156
sS','
I-156
ssI235
(dp375
S')'
I-153
sS'='
I-153
sS','
I-153
ssI236
(dp376
S')'
I-154
sS'='
I-154
sS','
I-154
ssI237
(dp377
S')'
I-157
sS'='
I-157
sS','
I-157
ssI238
(dp378
S')'
I-161
sS'='
I-161
sS','
I-161
ssI239
(dp379
S')'
I-145
sS'='
I-145
sS','
I-145
ssI240
(dp380
S')'
I-137
sS'='
I-137
sS','
I-137
ssI241
(dp381
S')'
I-146
sS'='
I-146
sS','
I-146
ssI242
(dp382
S')'
I-163
sS'='
I-163
sS','
I-163
ssI243
(dp383
S')'
I-138
sS'='
I-138
sS','
I-138
ssI244
(dp384
S')'
I-149
sS'='
I-149
sS','
I-149
ssI245
(dp385
S')'
I-58
sS';'
I-58
sS'='
I282
sS','
I-58
ssI246
(dp386
g251
I176
ssI247
(dp387
S']'
I-202
sS','
I-202
ssI248
(dp388
g254
I179
ssI249
(dp389
g18
I-37
sg30
I-37
sg20
I-37
sg22
I-37
sg3
I-37
sg33
I-37
sg35
I-37
sg36
I-37
sS'['
I-37
sg38
I-37
sg17
I-37
ssI250
(dp390
S')'
I-58
sS';'
I-58
sS'='
I282
sS','
I-58
ssI251
(dp391
S'}'
I-42
ssI252
(dp392
S'string'
p393
I287
ssI253
(dp394
S'}'
I-84
ssI254
(dp395
g18
I-66
sg30
I-66
sg20
I-66
sg22
I-66
sg3
I-66
sg33
I-66
sg35
I-66
sg36
I-66
sS'['
I-66
sg38
I-66
sg17
I-66
ssI255
(dp396
g3
I-196
sg5
I-196
sg8
I-196
sg11
I-196
sg13
I-196
sS')'
I-196
sS'('
I-196
sg153
I-196
sg154
I-196
sS'>'
I-196
sg18
I-196
sg20
I-196
sg22
I-196
sg24
I-196
sg25
I-196
sg26
I-196
sg155
I-196
sg30
I-196
sg156
I-196
sg31
I-196
sg33
I-196
sS'?'
I267
sg37
I-196
sg38
I-196
sg157
I-196
sg41
I-196
ssI256
(dp397
g3
I-196
sg5
I-196
sg8
I-196
sg11
I-196
sg13
I-196
sS')'
I-196
sS'('
I-196
sg153
I-196
sg154
I-196
sS'>'
I-196
sg18
I-196
sg20
I-196
sg22
I-196
sg24
I-196
sg25
I-196
sg26
I-196
sg155
I-196
sg30
I-196
sg156
I-196
sg31
I-196
sg33
I-196
sS'?'
I267
sg37
I-196
sg38
I-196
sg157
I-196
sg41
I-196
ssI257
(dp398
S'identifier'
p399
I290
ssI258
(dp400
S'('
I291
sS';'
I292
ssI259
(dp401
S'}'
I-67
ssI260
(dp402
g4
I-109
sg5
I-109
sg6
I-109
sg7
I-109
sg8
I-109
sg9
I-109
sg10
I-109
sg11
I-109
sg12
I-109
sg13
I-109
sS'('
I-109
sg14
I-109
sg15
I-109
sg16
I-109
sg21
I-109
sg35
I-109
sg23
I-109
sg24
I-109
sg25
I-109
sg26
I-109
sg27
I-109
sS'['
I-109
sg38
I-109
sg31
I-109
sg32
I-109
sg34
I-109
sg39
I-109
sg37
I-109
sg29
I-109
sS'}'
I-109
sg40
I-109
sg41
I-109
ssI261
(dp403
g31
I-113
ssI262
(dp404
S'ATTRIBUTE'
p405
I293
ssI263
(dp406
g102
I78
sg103
I63
sg104
I70
sg105
I75
sS'('
I72
sg106
I64
sg107
I76
sg108
I66
sg109
I73
sg110
I85
sg111
I88
sg112
I89
sg113
I84
sg114
I68
sg115
I79
sg116
I80
sg117
I83
sg168
I121
ssI264
(dp407
S')'
I295
ssI265
(dp408
S')'
I-61
sg157
I-61
ssI266
(dp409
g3
I-170
sg5
I-170
sg8
I-170
sg11
I-170
sg13
I-170
sS')'
I-170
sS'('
I-170
sg153
I-170
sg154
I-170
sS'>'
I-170
sg18
I-170
sg20
I-170
sg22
I-170
sg24
I-170
sg25
I-170
sg26
I-170
sg155
I-170
sg30
I-170
sg156
I-170
sg31
I-170
sg33
I-170
sg37
I-170
sg38
I-170
sg157
I-170
sg41
I-170
ssI267
(dp410
g3
I-195
sg5
I-195
sg8
I-195
sg11
I-195
sg13
I-195
sS')'
I-195
sS'('
I-195
sg153
I-195
sg154
I-195
sS'>'
I-195
sg18
I-195
sg20
I-195
sg22
I-195
sg24
I-195
sg25
I-195
sg26
I-195
sg155
I-195
sg30
I-195
sg156
I-195
sg31
I-195
sg33
I-195
sg37
I-195
sg38
I-195
sg157
I-195
sg41
I-195
ssI268
(dp411
g18
I-54
sg30
I-54
sg20
I-54
sg22
I-54
sg3
I-54
sg33
I-54
sg35
I-54
sg36
I-54
sS'['
I-54
sg38
I-54
sg17
I-54
ssI269
(dp412
g18
I-31
sg30
I-31
sg20
I-31
sg22
I-31
sg3
I-31
sg33
I-31
sg35
I-31
sg36
I-31
sS'['
I-31
sg38
I-31
sg17
I-31
ssI270
(dp413
S'}'
I-32
ssI271
(dp414
g4
I-107
sg5
I-107
sg6
I-107
sg7
I-107
sg8
I-107
sg9
I-107
sg10
I-107
sg11
I-107
sg12
I-107
sg13
I-107
sS'('
I-107
sg14
I-107
sg15
I-107
sg16
I-107
sg21
I-107
sg23
I-107
sg24
I-107
sg25
I-107
sg26
I-107
sg27
I-107
sS'['
I-107
sg38
I-107
sg31
I-107
sg32
I-107
sg34
I-107
sg39
I-107
sg37
I-107
sg29
I-107
sS'}'
I-107
sg40
I-107
sg41
I-107
ssI272
(dp415
g4
I-106
sg5
I-106
sg6
I-106
sg7
I-106
sg8
I-106
sg9
I-106
sg10
I-106
sg11
I-106
sg12
I-106
sg13
I-106
sS'('
I-106
sg14
I-106
sg15
I-106
sg16
I-106
sg21
I-106
sg23
I-106
sg24
I-106
sg25
I-106
sg26
I-106
sg27
I-106
sS'['
I-106
sg38
I-106
sg31
I-106
sg32
I-106
sg34
I-106
sg39
I-106
sg37
I-106
sg29
I-106
sS'}'
I-106
sg40
I-106
sg41
I-106
ssI273
(dp416
S'('
I-128
sg354
I277
ssI274
(dp417
g4
I-125
sg5
I-125
sg6
I-125
sg7
I-125
sg8
I-125
sg9
I-125
sg10
I-125
sg11
I-125
sg12
I-125
sg13
I-125
sS'('
I-125
sg14
I-125
sg15
I-125
sg16
I-125
sg21
I-125
sg23
I-125
sg24
I-125
sg25
I-125
sg26
I-125
sg27
I-125
sS'['
I-125
sg38
I-125
sg31
I-125
sg32
I-125
sg34
I-125
sg39
I-125
sg37
I-125
sg29
I-125
sS'}'
I-125
sg40
I-125
sg41
I-125
ssI275
(dp418
g4
I-115
sg5
I-115
sg6
I-115
sg7
I-115
sg8
I-115
sg9
I-115
sg10
I-115
sg11
I-115
sg12
I-115
sg13
I-115
sS'('
I-115
sg14
I-115
sg15
I-115
sg16
I-115
sg21
I-115
sg23
I-115
sg24
I-115
sg25
I-115
sg26
I-115
sg27
I-115
sS'['
I-115
sg38
I-115
sg31
I-115
sg32
I-115
sg34
I-115
sg39
I-115
sg37
I-115
sg29
I-115
sS'}'
I-115
sg40
I-115
sg41
I-115
ssI276
(dp419
S'('
I297
ssI277
(dp420
S'('
I-127
ssI278
(dp421
g102
I78
sg103
I63
sg104
I70
sg105
I75
sS'('
I72
sg193
I134
sg106
I64
sg107
I76
sg108
I66
sg109
I73
sg110
I85
sg111
I88
sg112
I89
sg113
I84
sg114
I68
sg115
I79
sg116
I80
sg117
I83
sg118
I87
ssI279
(dp422
g4
I-119
sg6
I-119
sg7
I-119
sg9
I-119
sg278
I208
sg12
I-119
sg279
I209
sS'('
I-119
sg14
I-119
sg15
I-119
sg21
I-119
sg23
I-119
sg280
I216
sg281
I213
sg27
I-119
sg10
I-119
sg29
I-119
sg39
I-119
sg32
I-119
sg34
I-119
sg37
I-119
sg38
I-119
sg40
I-119
sg282
I218
ssI280
(dp423
S';'
I300
ssI281
(dp424
g18
I-20
sg30
I-20
sg20
I-20
sg22
I-20
sg3
I-20
sg33
I-20
sg35
I-20
sg36
I-20
sS'['
I-20
sg38
I-20
sg17
I-20
ssI282
(dp425
S'FALSE'
p426
I302
sS'string'
p427
I303
sS'NAN'
p428
I316
sS'float'
p429
I307
sS'-'
I308
sS'integer'
p430
I312
sS'INFINITY'
p431
I313
sS'NULL'
p432
I311
sS'TRUE'
p433
I305
ssI283
(dp434
S')'
I-135
sS','
I-135
ssI284
(dp435
S']'
I-77
sS','
I-77
ssI285
(dp436
S']'
I-81
sS','
I-81
ssI286
(dp437
S';'
I317
ssI287
(dp438
S'}'
I-85
sS','
I185
ssI288
(dp439
g38
I-171
ssI289
(dp440
g38
I-172
ssI290
(dp441
S'='
I319
ssI291
(dp442
S')'
I320
ssI292
(dp443
g4
I-141
sg5
I-141
sg7
I-141
sg9
I-141
sg10
I-141
sg12
I-141
sS'('
I-141
sg14
I-141
sg15
I-141
sg16
I-141
sg21
I-141
sg23
I-141
sg24
I-141
sg27
I-141
sS'['
I-141
sg29
I-141
sg31
I-141
sg32
I-141
sS'}'
I-141
sg34
I-141
sg35
I-141
sg37
I-141
sg38
I-141
sg39
I-141
sg40
I-141
ssI293
(dp444
g102
I78
sg103
I63
sg104
I70
sg105
I75
sS'('
I72
sg106
I64
sg107
I76
sg108
I66
sg109
I73
sg110
I85
sg111
I88
sg112
I89
sg113
I84
sg114
I68
sg115
I79
sg116
I80
sg117
I83
sg118
I87
ssI294
(dp445
S')'
I-65
sg338
I263
ssI295
(dp446
g3
I-56
sg5
I-56
sg8
I-56
sg11
I-56
sg13
I-56
sS')'
I-56
sS'('
I-56
sg153
I-56
sg154
I-56
sS'>'
I-56
sg18
I-56
sg20
I-56
sg22
I-56
sg24
I-56
sg25
I-56
sg26
I-56
sS'['
I-56
sg155
I-56
sg30
I-56
sg156
I-56
sg31
I-56
sg33
I-56
sS'?'
I-56
sg37
I-56
sg38
I-56
sg157
I-56
sg41
I-56
ssI296
(dp447
g4
I-108
sg5
I-108
sg6
I-108
sg7
I-108
sg8
I-108
sg9
I-108
sg10
I-108
sg11
I-108
sg12
I-108
sg13
I-108
sS'('
I-108
sg14
I-108
sg15
I-108
sg16
I-108
sg21
I-108
sg23
I-108
sg24
I-108
sg25
I-108
sg26
I-108
sg27
I-108
sS'['
I-108
sg38
I-108
sg31
I-108
sg32
I-108
sg34
I-108
sg39
I-108
sg37
I-108
sg29
I-108
sS'}'
I-108
sg40
I-108
sg41
I-108
ssI297
(dp448
g3
I-40
sg4
I-40
sg5
I-40
sg6
I-40
sg7
I-40
sg8
I-40
sg9
I-40
sg10
I-40
sg11
I-40
sg12
I-40
sg13
I-40
sS')'
I-130
sS'('
I-40
sg14
I-40
sg15
I-40
sg16
I-40
sg18
I-40
sg19
I-40
sg20
I-40
sg21
I-40
sg22
I-40
sg23
I-40
sg24
I-40
sg25
I-40
sg26
I-40
sg27
I-40
sS'['
I3
sg28
I-40
sg29
I-40
sg30
I-40
sg31
I-40
sg32
I-40
sg33
I-40
sg34
I-40
sg141
I103
sg36
I-40
sg37
I-40
sg38
I-40
sg39
I-40
sg40
I-40
sg41
I-40
ssI298
(dp449
S'('
I-128
sg354
I277
ssI299
(dp450
g38
I-118
sg4
I-118
sg12
I-118
sg21
I-118
sS'('
I-118
sg6
I-118
sg7
I-118
sg23
I-118
sg14
I-118
sg15
I-118
sg32
I-118
sg34
I-118
sg37
I-118
sg39
I-118
sg9
I-118
sg27
I-118
sg10
I-118
sg29
I-118
sg40
I-118
ssI300
(dp451
g18
I-91
sg30
I-91
sg20
I-91
sg22
I-91
sg3
I-91
sg33
I-91
sg35
I-91
sg36
I-91
sS'['
I-91
sg38
I-91
sg17
I-91
ssI301
(dp452
S')'
I-17
sS';'
I-17
sS','
I-17
ssI302
(dp453
S')'
I-98
sS';'
I-98
sS','
I-98
ssI303
(dp454
S')'
I-23
sS';'
I-23
sS']'
I-23
sS','
I-23
sS'|'
I-23
ssI304
(dp455
S')'
I-15
sS';'
I-15
sS','
I-15
ssI305
(dp456
S')'
I-97
sS';'
I-97
sS','
I-97
ssI306
(dp457
S')'
I-57
sS';'
I-57
sS','
I-57
ssI307
(dp458
S')'
I-99
sS';'
I-99
sS','
I-99
ssI308
(dp459
S'INFINITY'
p460
I325
ssI309
(dp461
S')'
I-16
sS';'
I-16
sS','
I-16
ssI310
(dp462
S')'
I-14
sS';'
I-14
sS','
I-14
ssI311
(dp463
S')'
I-96
sS';'
I-96
sS','
I-96
ssI312
(dp464
S')'
I-21
sS';'
I-21
sS','
I-21
ssI313
(dp465
S')'
I-101
sS';'
I-101
sS','
I-101
ssI314
(dp466
S')'
I-13
sS';'
I-13
sS','
I-13
ssI315
(dp467
S')'
I-62
sS';'
I-62
sS','
I-62
ssI316
(dp468
S')'
I-102
sS';'
I-102
sS','
I-102
ssI317
(dp469
g32
I-47
sg38
I-47
sg4
I-47
sg12
I-47
sg21
I-47
sS'('
I-47
sg7
I-47
sg23
I-47
sg14
I-47
sg15
I-47
sg40
I-47
sg34
I-47
sg37
I-47
sg39
I-47
sg9
I-47
sg27
I-47
sS'['
I-47
sg29
I-47
sS'}'
I-47
sg10
I-47
ssI318
(dp470
S'}'
I-87
ssI319
(dp471
g426
I302
sg144
I107
sg428
I316
sg429
I307
sS'-'
I308
sg430
I312
sg431
I313
sg432
I311
sg433
I305
ssI320
(dp472
S';'
I327
ssI321
(dp473
S'identifier'
p474
I328
ssI322
(dp475
S')'
I-64
ssI323
(dp476
S')'
I329
ssI324
(dp477
g4
I-117
sg5
I-117
sg6
I-117
sg7
I-117
sg8
I-117
sg9
I-117
sg10
I-117
sg11
I-117
sg12
I-117
sg13
I-117
sS'('
I-117
sg14
I-117
sg15
I-117
sg16
I-117
sg21
I-117
sg23
I-117
sg24
I-117
sg25
I-117
sg26
I-117
sg27
I-117
sS'['
I-117
sg38
I-117
sg31
I-117
sg32
I-117
sg34
I-117
sg39
I-117
sg37
I-117
sg29
I-117
sS'}'
I-117
sg40
I-117
sg41
I-117
ssI325
(dp478
S')'
I-100
sS';'
I-100
sS','
I-100
ssI326
(dp479
S';'
I330
ssI327
(dp480
g4
I-34
sg5
I-34
sg7
I-34
sg9
I-34
sg10
I-34
sg12
I-34
sS'('
I-34
sg14
I-34
sg15
I-34
sg16
I-34
sg21
I-34
sg23
I-34
sg24
I-34
sg27
I-34
sS'['
I-34
sg29
I-34
sg31
I-34
sg32
I-34
sS'}'
I-34
sg34
I-34
sg35
I-34
sg37
I-34
sg38
I-34
sg39
I-34
sg40
I-34
ssI328
(dp481
S';'
I331
ssI329
(dp482
S';'
I332
ssI330
(dp483
g4
I-95
sg5
I-95
sg6
I-95
sg7
I-95
sg8
I-95
sg9
I-95
sg10
I-95
sg11
I-95
sg12
I-95
sg13
I-95
sS'('
I-95
sg14
I-95
sg15
I-95
sg16
I-95
sg21
I-95
sg35
I-95
sg23
I-95
sg24
I-95
sg25
I-95
sg26
I-95
sg27
I-95
sS'['
I-95
sg38
I-95
sg31
I-95
sg32
I-95
sg34
I-95
sg39
I-95
sg37
I-95
sg29
I-95
sS'}'
I-95
sg40
I-95
sg41
I-95
ssI331
(dp484
g4
I-110
sg5
I-110
sg6
I-110
sg7
I-110
sg8
I-110
sg9
I-110
sg10
I-110
sg11
I-110
sg12
I-110
sg13
I-110
sS'('
I-110
sg14
I-110
sg15
I-110
sg16
I-110
sg21
I-110
sg35
I-110
sg23
I-110
sg24
I-110
sg25
I-110
sg26
I-110
sg27
I-110
sS'['
I-110
sg38
I-110
sg31
I-110
sg32
I-110
sg34
I-110
sg39
I-110
sg37
I-110
sg29
I-110
sS'}'
I-110
sg40
I-110
sg41
I-110
ssI332
(dp485
g4
I-126
sg5
I-126
sg6
I-126
sg7
I-126
sg8
I-126
sg9
I-126
sg10
I-126
sg11
I-126
sg12
I-126
sg13
I-126
sS'('
I-126
sg14
I-126
sg15
I-126
sg16
I-126
sg21
I-126
sg23
I-126
sg24
I-126
sg25
I-126
sg26
I-126
sg27
I-126
sS'['
I-126
sg38
I-126
sg31
I-126
sg32
I-126
sg34
I-126
sg39
I-126
sg37
I-126
sg29
I-126
sS'}'
I-126
sg40
I-126
sg41
I-126
ss.(dp1
I0
(dp2
S'Definitions'
p3
I2
sS'ExtendedAttributeList'
p4
I1
ssI1
(dp5
S'Definition'
p6
I9
sS'Exception'
p7
I10
sS'Partial'
p8
I17
sS'Dictionary'
p9
I6
sS'CallbackOrInterface'
p10
I5
sS'Enum'
p11
I7
sS'Typedef'
p12
I4
sS'Interface'
p13
I8
sS'ImplementsStatement'
p14
I14
ssI2
(dp15
sI3
(dp16
S'ExtendedAttribute'
p17
I22
sS'ExtendedAttributeNamedArgList'
p18
I23
sS'ExtendedAttributeArgList'
p19
I24
sS'ExtendedAttributeIdentList'
p20
I25
sS'ExtendedAttributeIdent'
p21
I26
sS'ExtendedAttributeNoArgs'
p22
I27
sS'ExtendedAttributeStringLiteralList'
p23
I28
ssI4
(dp24
sI5
(dp25
sI6
(dp26
sI7
(dp27
sI8
(dp28
sI9
(dp29
S'Definitions'
p30
I31
sg4
I1
ssI10
(dp31
sI11
(dp32
sI12
(dp33
sI13
(dp34
sI14
(dp35
sI15
(dp36
S'ExtendedAttributeListNoComments'
p37
I37
ssI16
(dp38
S'PartialDictionary'
p39
I40
sS'PartialInterface'
p40
I45
sS'PartialDefinition'
p41
I42
ssI17
(dp42
sI18
(dp43
S'Interface'
p44
I48
sS'CallbackRestOrInterface'
p45
I46
sS'CallbackRest'
p46
I47
ssI19
(dp47
sI20
(dp48
sI21
(dp49
sI22
(dp50
S'ExtendedAttributes'
p51
I53
ssI23
(dp52
sI24
(dp53
sI25
(dp54
sI26
(dp55
sI27
(dp56
sI28
(dp57
sI29
(dp58
sI30
(dp59
sI31
(dp60
sI32
(dp61
sI33
(dp62
S'Inheritance'
p63
I59
ssI34
(dp64
sI35
(dp65
sI36
(dp66
S'Inheritance'
p67
I62
ssI37
(dp68
S'NonAnyType'
p69
I74
sS'FloatType'
p70
I71
sS'UnionType'
p71
I81
sS'UnsignedIntegerType'
p72
I86
sS'PrimitiveType'
p73
I65
sS'SingleType'
p74
I67
sS'Type'
p75
I69
sS'UnrestrictedFloatType'
p76
I82
sS'IntegerType'
p77
I77
ssI38
(dp78
sI39
(dp79
S'ExtendedAttribute'
p80
I91
sg18
I23
sg19
I24
sg20
I25
sg21
I26
sg22
I27
sg23
I28
ssI40
(dp81
sI41
(dp82
sI42
(dp83
sI43
(dp84
sI44
(dp85
sI45
(dp86
sI46
(dp87
sI47
(dp88
sI48
(dp89
sI49
(dp90
sI50
(dp91
sI51
(dp92
S'Inheritance'
p93
I96
ssI52
(dp94
sI53
(dp95
sI54
(dp96
S'ExtendedAttribute'
p97
I99
sg18
I23
sg19
I24
sg20
I25
sg21
I26
sg22
I27
sg23
I28
ssI55
(dp98
S'ArgumentList'
p99
I100
sS'ExtendedAttributeList'
p100
I102
sS'Argument'
p101
I101
ssI56
(dp102
S'StringLiteralOrList'
p103
I105
sS'StringLiteral'
p104
I104
ssI57
(dp105
sI58
(dp106
sI59
(dp107
sI60
(dp108
sI61
(dp109
S'ExtendedAttributeList'
p110
I111
sS'EnumValueList'
p111
I110
ssI62
(dp112
sI63
(dp113
sI64
(dp114
sI65
(dp115
S'TypeSuffix'
p116
I113
ssI66
(dp117
g77
I116
ssI67
(dp118
sI68
(dp119
sI69
(dp120
sI70
(dp121
sI71
(dp122
sI72
(dp123
S'NonAnyType'
p124
I120
sg70
I71
sg72
I86
sS'UnionMemberType'
p125
I119
sg73
I65
sS'UnionType'
p126
I118
sg76
I82
sg77
I77
ssI73
(dp127
S'OptionalLong'
p128
I122
ssI74
(dp129
sI75
(dp130
sI76
(dp131
sI77
(dp132
sI78
(dp133
sI79
(dp134
sI80
(dp135
sI81
(dp136
S'TypeSuffix'
p137
I125
ssI82
(dp138
sI83
(dp139
S'TypeSuffix'
p140
I126
ssI84
(dp141
sI85
(dp142
sI86
(dp143
sI87
(dp144
S'TypeSuffixStartingWithArray'
p145
I128
ssI88
(dp146
sI89
(dp147
g70
I129
ssI90
(dp148
sI91
(dp149
S'ExtendedAttributes'
p150
I130
ssI92
(dp151
sI93
(dp152
sI94
(dp153
sI95
(dp154
g69
I74
sg70
I71
sS'Type'
p155
I135
sg72
I86
sg73
I65
sg74
I67
sS'ReturnType'
p156
I136
sg71
I81
sg76
I82
sg77
I77
ssI96
(dp157
sI97
(dp158
sI98
(dp159
sI99
(dp160
S'ExtendedAttributes'
p161
I139
ssI100
(dp162
sI101
(dp163
S'Arguments'
p164
I142
ssI102
(dp165
g69
I74
sg70
I71
sS'Type'
p166
I143
sg72
I86
sS'OptionalOrRequiredArgument'
p167
I145
sg73
I65
sg74
I67
sg71
I81
sg76
I82
sg77
I77
ssI103
(dp168
sI104
(dp169
sI105
(dp170
sI106
(dp171
sI107
(dp172
sI108
(dp173
sI109
(dp174
S'ExtendedAttributeList'
p175
I151
sS'DictionaryMembers'
p176
I150
ssI110
(dp177
sI111
(dp178
sI112
(dp179
S'ExtendedAttributeList'
p180
I155
sS'ExceptionMembers'
p181
I154
ssI113
(dp182
sI114
(dp183
sI115
(dp184
S'TypeSuffixStartingWithArray'
p185
I158
ssI116
(dp186
sI117
(dp187
sI118
(dp188
S'TypeSuffix'
p189
I160
ssI119
(dp190
sI120
(dp191
sI121
(dp192
sI122
(dp193
sI123
(dp194
sI124
(dp195
g69
I74
sg70
I71
sg71
I81
sg72
I86
sg73
I65
sg74
I67
sS'Type'
p196
I163
sg76
I82
sg77
I77
ssI125
(dp197
sI126
(dp198
sI127
(dp199
sI128
(dp200
sI129
(dp201
sI130
(dp202
sI131
(dp203
sI132
(dp204
S'DictionaryMembers'
p205
I166
sg175
I151
ssI133
(dp206
S'InterfaceMembers'
p207
I167
sS'ExtendedAttributeList'
p208
I168
ssI134
(dp209
sI135
(dp210
sI136
(dp211
sI137
(dp212
S'InterfaceMembers'
p213
I170
sg208
I168
ssI138
(dp214
sI139
(dp215
sI140
(dp216
sI141
(dp217
g100
I102
sS'Argument'
p218
I171
ssI142
(dp219
sI143
(dp220
S'Ellipsis'
p221
I172
ssI144
(dp222
g69
I74
sg70
I71
sg166
I174
sg72
I86
sg73
I65
sg74
I67
sg71
I81
sg76
I82
sg77
I77
ssI145
(dp223
sI146
(dp224
S'StringLiteralOrList'
p225
I175
sg104
I104
ssI147
(dp226
S'IdentAndList'
p227
I177
ssI148
(dp228
S'ArgumentList'
p229
I178
sg100
I102
sg101
I101
ssI149
(dp230
S'IdentOrList'
p231
I180
ssI150
(dp232
sI151
(dp233
g69
I74
sg70
I71
sS'Type'
p234
I182
sg72
I86
sS'DictionaryMember'
p235
I183
sg73
I65
sg74
I67
sg71
I81
sg76
I82
sg77
I77
ssI152
(dp236
sI153
(dp237
S'EnumValueListComma'
p238
I186
ssI154
(dp239
sI155
(dp240
g69
I74
sS'Const'
p241
I188
sg72
I86
sg70
I71
sg71
I81
sS'ExceptionMember'
p242
I193
sg73
I65
sS'Attribute'
p243
I196
sS'ExceptionOperation'
p244
I189
sS'Inherit'
p245
I194
sg74
I67
sS'ExceptionField'
p246
I190
sS'Type'
p247
I192
sg76
I82
sg77
I77
ssI156
(dp248
sI157
(dp249
S'TypeSuffix'
p250
I198
ssI158
(dp251
sI159
(dp252
sI160
(dp253
sI161
(dp254
g124
I120
sg70
I71
sg72
I86
sg125
I199
sg73
I65
sg126
I118
sg76
I82
sg77
I77
ssI162
(dp255
sI163
(dp256
sI164
(dp257
S'TypeSuffix'
p258
I202
ssI165
(dp259
sI166
(dp260
sI167
(dp261
sI168
(dp262
S'StaticMember'
p263
I215
sg69
I74
sS'Const'
p264
I207
sg72
I86
sg70
I71
sS'SpecialOperation'
p265
I210
sg71
I81
sS'AttributeOrOperationOrIterator'
p266
I211
sg73
I65
sS'OperationOrIterator'
p267
I212
sg245
I194
sg74
I67
sS'Attribute'
p268
I217
sS'ReturnType'
p269
I214
sS'InterfaceMember'
p270
I205
sg155
I135
sg76
I82
sS'Special'
p271
I219
sg77
I77
ssI169
(dp272
S'ArgumentList'
p273
I220
sg100
I102
sg101
I101
ssI170
(dp274
sI171
(dp275
S'Arguments'
p276
I222
ssI172
(dp277
S'ArgumentName'
p278
I228
sS'ArgumentNameKeyword'
p279
I240
ssI173
(dp280
sI174
(dp281
S'ArgumentName'
p282
I245
sg279
I240
ssI175
(dp283
sI176
(dp284
sI177
(dp285
sI178
(dp286
sI179
(dp287
sI180
(dp288
sI181
(dp289
sI182
(dp290
sI183
(dp291
g175
I151
sS'DictionaryMembers'
p292
I251
ssI184
(dp293
sI185
(dp294
S'ExtendedAttributeList'
p295
I252
sS'EnumValueListString'
p296
I253
ssI186
(dp297
sI187
(dp298
sI188
(dp299
sI189
(dp300
sI190
(dp301
sI191
(dp302
S'ConstType'
p303
I257
sg72
I86
sg70
I71
sS'PrimitiveType'
p304
I255
sg77
I77
sg76
I82
ssI192
(dp305
sI193
(dp306
g180
I155
sS'ExceptionMembers'
p307
I259
ssI194
(dp308
S'ReadOnly'
p309
I262
sS'AttributeRest'
p310
I260
ssI195
(dp311
sI196
(dp312
sI197
(dp313
sI198
(dp314
sI199
(dp315
S'UnionMemberTypes'
p316
I264
ssI200
(dp317
S'TypeSuffix'
p318
I265
ssI201
(dp319
S'Null'
p320
I266
ssI202
(dp321
sI203
(dp322
sI204
(dp323
sI205
(dp324
S'InterfaceMembers'
p325
I270
sg208
I168
ssI206
(dp326
g69
I74
sg70
I71
sS'Type'
p327
I135
sS'StaticMemberRest'
p328
I272
sS'AttributeRest'
p329
I271
sg73
I65
sg309
I262
sg72
I86
sg74
I67
sS'ReturnType'
p330
I273
sg71
I81
sg76
I82
sg77
I77
ssI207
(dp331
sI208
(dp332
sI209
(dp333
sI210
(dp334
sI211
(dp335
sI212
(dp336
sI213
(dp337
sI214
(dp338
S'OperationOrIteratorRest'
p339
I275
sS'OperationRest'
p340
I274
sS'OptionalIdentifier'
p341
I276
ssI215
(dp342
sI216
(dp343
sI217
(dp344
sI218
(dp345
sI219
(dp346
S'Specials'
p347
I278
sg271
I279
ssI220
(dp348
sI221
(dp349
sI222
(dp350
sI223
(dp351
sI224
(dp352
sI225
(dp353
sI226
(dp354
sI227
(dp355
sI228
(dp356
sI229
(dp357
sI230
(dp358
sI231
(dp359
sI232
(dp360
sI233
(dp361
sI234
(dp362
sI235
(dp363
sI236
(dp364
sI237
(dp365
sI238
(dp366
sI239
(dp367
sI240
(dp368
sI241
(dp369
sI242
(dp370
sI243
(dp371
sI244
(dp372
sI245
(dp373
S'Default'
p374
I283
ssI246
(dp375
S'IdentAndList'
p376
I284
ssI247
(dp377
sI248
(dp378
S'IdentOrList'
p379
I285
ssI249
(dp380
sI250
(dp381
S'Default'
p382
I286
ssI251
(dp383
sI252
(dp384
sI253
(dp385
sI254
(dp386
sI255
(dp387
S'Null'
p388
I288
ssI256
(dp389
S'Null'
p390
I289
ssI257
(dp391
sI258
(dp392
sI259
(dp393
sI260
(dp394
sI261
(dp395
sI262
(dp396
sI263
(dp397
g124
I120
sg70
I71
sg72
I86
sS'UnionMemberType'
p398
I294
sg73
I65
sg126
I118
sg76
I82
sg77
I77
ssI264
(dp399
sI265
(dp400
sI266
(dp401
sI267
(dp402
sI268
(dp403
sI269
(dp404
sI270
(dp405
sI271
(dp406
sI272
(dp407
sI273
(dp408
S'OperationRest'
p409
I296
sg341
I276
ssI274
(dp410
sI275
(dp411
sI276
(dp412
sI277
(dp413
sI278
(dp414
g69
I74
sg70
I71
sg155
I135
sg73
I65
sg72
I86
sg74
I67
sS'ReturnType'
p415
I298
sg71
I81
sg76
I82
sg77
I77
ssI279
(dp416
S'Specials'
p417
I299
sS'Special'
p418
I279
ssI280
(dp419
sI281
(dp420
sI282
(dp421
S'DefaultValue'
p422
I306
sS'ConstValue'
p423
I315
sS'StringLiteral'
p424
I309
sS'FloatLiteral'
p425
I310
sS'BooleanLiteral'
p426
I314
sS'null'
p427
I301
sS'IntegerLiteral'
p428
I304
ssI283
(dp429
sI284
(dp430
sI285
(dp431
sI286
(dp432
sI287
(dp433
S'EnumValueListComma'
p434
I318
ssI288
(dp435
sI289
(dp436
sI290
(dp437
sI291
(dp438
sI292
(dp439
sI293
(dp440
g69
I74
sg70
I71
sg71
I81
sg72
I86
sg73
I65
sg74
I67
sg327
I321
sg76
I82
sg77
I77
ssI294
(dp441
S'UnionMemberTypes'
p442
I322
ssI295
(dp443
sI296
(dp444
sI297
(dp445
S'ArgumentList'
p446
I323
sg100
I102
sg101
I101
ssI298
(dp447
S'OperationRest'
p448
I324
sg341
I276
ssI299
(dp449
sI300
(dp450
sI301
(dp451
sI302
(dp452
sI303
(dp453
sI304
(dp454
sI305
(dp455
sI306
(dp456
sI307
(dp457
sI308
(dp458
sI309
(dp459
sI310
(dp460
sI311
(dp461
sI312
(dp462
sI313
(dp463
sI314
(dp464
sI315
(dp465
sI316
(dp466
sI317
(dp467
sI318
(dp468
sI319
(dp469
S'ConstValue'
p470
I326
sg424
I309
sg426
I314
sg425
I310
sg427
I301
sg428
I304
ssI320
(dp471
sI321
(dp472
sI322
(dp473
sI323
(dp474
sI324
(dp475
sI325
(dp476
sI326
(dp477
sI327
(dp478
sI328
(dp479
sI329
(dp480
sI330
(dp481
sI331
(dp482
sI332
(dp483
s.(lp1
(S"S' -> Definitions"
p2
S"S'"
p3
I1
NNNtp4
a(S'Definitions -> ExtendedAttributeList Definition Definitions'
p5
S'Definitions'
p6
I3
S'p_Definitions'
p7
S'blink_idl_parser.py'
p8
I107
tp9
a(S'Definitions -> <empty>'
p10
g6
I0
g7
g8
I108
tp11
a(S'Definition -> CallbackOrInterface'
p12
S'Definition'
p13
I1
S'p_Definition'
p14
S'../../../../../tools/idl_parser/idl_parser.py'
p15
I198
tp16
a(S'Definition -> Partial'
p17
g13
I1
g14
g15
I199
tp18
a(S'Definition -> Dictionary'
p19
g13
I1
g14
g15
I200
tp20
a(S'Definition -> Exception'
p21
g13
I1
g14
g15
I201
tp22
a(S'Definition -> Enum'
p23
g13
I1
g14
g15
I202
tp24
a(S'Definition -> Typedef'
p25
g13
I1
g14
g15
I203
tp26
a(S'Definition -> ImplementsStatement'
p27
g13
I1
g14
g15
I204
tp28
a(S'CallbackOrInterface -> CALLBACK CallbackRestOrInterface'
p29
S'CallbackOrInterface'
p30
I2
S'p_CallbackOrInterface'
p31
S'blink_idl_parser.py'
p32
I208
tp33
a(S'CallbackOrInterface -> Interface'
p34
g30
I1
g31
g32
I209
tp35
a(S'Definition -> error ;'
p36
S'Definition'
p37
I2
S'p_DefinitionError'
p38
S'../../../../../tools/idl_parser/idl_parser.py'
p39
I209
tp40
a(S'ConstValue -> BooleanLiteral'
p41
S'ConstValue'
p42
I1
S'p_ConstValue'
p43
S'blink_idl_parser.py'
p44
I219
tp45
a(S'ConstValue -> FloatLiteral'
p46
g42
I1
g43
g44
I220
tp47
a(S'ConstValue -> IntegerLiteral'
p48
g42
I1
g43
g44
I221
tp49
a(S'ConstValue -> StringLiteral'
p50
g42
I1
g43
g44
I222
tp51
a(S'ConstValue -> null'
p52
g42
I1
g43
g44
I223
tp53
a(S'CallbackRestOrInterface -> CallbackRest'
p54
S'CallbackRestOrInterface'
p55
I1
S'p_CallbackRestOrInterface'
p56
S'../../../../../tools/idl_parser/idl_parser.py'
p57
I223
tp58
a(S'CallbackRestOrInterface -> Interface'
p59
g55
I1
g56
g57
I224
tp60
a(S'Interface -> INTERFACE identifier Inheritance { InterfaceMembers } ;'
p61
S'Interface'
p62
I7
S'p_Interface'
p63
S'../../../../../tools/idl_parser/idl_parser.py'
p64
I229
tp65
a(S'IntegerLiteral -> integer'
p66
S'IntegerLiteral'
p67
I1
S'p_IntegerLiteral'
p68
S'blink_idl_parser.py'
p69
I233
tp70
a(S'Partial -> PARTIAL PartialDefinition'
p71
S'Partial'
p72
I2
S'p_Partial'
p73
S'../../../../../tools/idl_parser/idl_parser.py'
p74
I234
tp75
a(S'StringLiteral -> string'
p76
S'StringLiteral'
p77
I1
S'p_StringLiteral'
p78
S'blink_idl_parser.py'
p79
I239
tp80
a(S'Partial -> PARTIAL error'
p81
S'Partial'
p82
I2
S'p_PartialError'
p83
S'../../../../../tools/idl_parser/idl_parser.py'
p84
I240
tp85
a(S'PartialDefinition -> PartialDictionary'
p86
S'PartialDefinition'
p87
I1
S'p_PartialDefinition'
p88
S'../../../../../tools/idl_parser/idl_parser.py'
p89
I245
tp90
a(S'PartialDefinition -> PartialInterface'
p91
g87
I1
g88
g89
I246
tp92
a(S'ExceptionMember -> Const'
p93
S'ExceptionMember'
p94
I1
S'p_ExceptionMember'
p95
S'blink_idl_parser.py'
p96
I245
tp97
a(S'ExceptionMember -> ExceptionField'
p98
g94
I1
g95
g96
I246
tp99
a(S'ExceptionMember -> Attribute'
p100
g94
I1
g95
g96
I247
tp101
a(S'ExceptionMember -> ExceptionOperation'
p102
g94
I1
g95
g96
I248
tp103
a(S'PartialInterface -> INTERFACE identifier { InterfaceMembers } ;'
p104
S'PartialInterface'
p105
I6
S'p_PartialInterface'
p106
S'../../../../../tools/idl_parser/idl_parser.py'
p107
I251
tp108
a(S'InterfaceMembers -> ExtendedAttributeList InterfaceMember InterfaceMembers'
p109
S'InterfaceMembers'
p110
I3
S'p_InterfaceMembers'
p111
S'../../../../../tools/idl_parser/idl_parser.py'
p112
I256
tp113
a(S'InterfaceMembers -> <empty>'
p114
g110
I0
g111
g112
I257
tp115
a(S'ExceptionOperation -> Type identifier ( ) ;'
p116
S'ExceptionOperation'
p117
I5
S'p_ExceptionOperation'
p118
S'blink_idl_parser.py'
p119
I258
tp120
a(S'InterfaceMember -> Const'
p121
S'InterfaceMember'
p122
I1
S'p_InterfaceMember'
p123
S'../../../../../tools/idl_parser/idl_parser.py'
p124
I264
tp125
a(S'InterfaceMember -> AttributeOrOperationOrIterator'
p126
g122
I1
g123
g124
I265
tp127
a(S'Dictionary -> DICTIONARY identifier Inheritance { DictionaryMembers } ;'
p128
S'Dictionary'
p129
I7
S'p_Dictionary'
p130
S'../../../../../tools/idl_parser/idl_parser.py'
p131
I270
tp132
a(S'ExtendedAttributeList -> [ ExtendedAttribute ExtendedAttributes ]'
p133
S'ExtendedAttributeList'
p134
I4
S'p_ExtendedAttributeList'
p135
S'blink_idl_parser.py'
p136
I270
tp137
a(S'ExtendedAttributeList -> [ ]'
p138
g134
I2
g135
g136
I271
tp139
a(S'ExtendedAttributeList -> <empty>'
p140
g134
I0
g135
g136
I272
tp141
a(S'Dictionary -> DICTIONARY error ;'
p142
S'Dictionary'
p143
I3
S'p_DictionaryError'
p144
S'../../../../../tools/idl_parser/idl_parser.py'
p145
I275
tp146
a(S'DictionaryMembers -> ExtendedAttributeList DictionaryMember DictionaryMembers'
p147
S'DictionaryMembers'
p148
I3
S'p_DictionaryMembers'
p149
S'../../../../../tools/idl_parser/idl_parser.py'
p150
I280
tp151
a(S'DictionaryMembers -> <empty>'
p152
g148
I0
g149
g150
I281
tp153
a(S'ExtendedAttributes -> , ExtendedAttribute ExtendedAttributes'
p154
S'ExtendedAttributes'
p155
I3
S'p_ExtendedAttributes'
p156
S'blink_idl_parser.py'
p157
I281
tp158
a(S'ExtendedAttributes -> ,'
p159
g155
I1
g156
g157
I282
tp160
a(S'ExtendedAttributes -> <empty>'
p161
g155
I0
g156
g157
I283
tp162
a(S'DictionaryMember -> Type identifier Default ;'
p163
S'DictionaryMember'
p164
I4
S'p_DictionaryMember'
p165
S'../../../../../tools/idl_parser/idl_parser.py'
p166
I288
tp167
a(S'ExtendedAttribute -> ExtendedAttributeNoArgs'
p168
S'ExtendedAttribute'
p169
I1
S'p_ExtendedAttribute'
p170
S'blink_idl_parser.py'
p171
I289
tp172
a(S'ExtendedAttribute -> ExtendedAttributeArgList'
p173
g169
I1
g170
g171
I290
tp174
a(S'ExtendedAttribute -> ExtendedAttributeIdent'
p175
g169
I1
g170
g171
I291
tp176
a(S'ExtendedAttribute -> ExtendedAttributeIdentList'
p177
g169
I1
g170
g171
I292
tp178
a(S'ExtendedAttribute -> ExtendedAttributeStringLiteralList'
p179
g169
I1
g170
g171
I293
tp180
a(S'ExtendedAttribute -> ExtendedAttributeNamedArgList'
p181
g169
I1
g170
g171
I294
tp182
a(S'PartialDictionary -> DICTIONARY identifier { DictionaryMembers } ;'
p183
S'PartialDictionary'
p184
I6
S'p_PartialDictionary'
p185
S'../../../../../tools/idl_parser/idl_parser.py'
p186
I293
tp187
a(S'PartialDictionary -> DICTIONARY error ;'
p188
S'PartialDictionary'
p189
I3
S'p_PartialDictionaryError'
p190
S'../../../../../tools/idl_parser/idl_parser.py'
p191
I299
tp192
a(S'UnionType -> ( UnionMemberType OR UnionMemberType UnionMemberTypes )'
p193
S'UnionType'
p194
I6
S'p_UnionType'
p195
S'blink_idl_parser.py'
p196
I300
tp197
a(S'Default -> = DefaultValue'
p198
S'Default'
p199
I2
S'p_Default'
p200
S'../../../../../tools/idl_parser/idl_parser.py'
p201
I304
tp202
a(S'Default -> <empty>'
p203
g199
I0
g200
g201
I305
tp204
a(S'UnionMemberType -> NonAnyType'
p205
S'UnionMemberType'
p206
I1
S'p_UnionMemberType'
p207
S'blink_idl_parser.py'
p208
I306
tp209
a(S'UnionMemberType -> UnionType TypeSuffix'
p210
g206
I2
g207
g208
I307
tp211
a(S'UnionMemberType -> ANY [ ] TypeSuffix'
p212
g206
I4
g207
g208
I308
tp213
a(S'DefaultValue -> ConstValue'
p214
S'DefaultValue'
p215
I1
S'p_DefaultValue'
p216
S'../../../../../tools/idl_parser/idl_parser.py'
p217
I311
tp218
a(S'DefaultValue -> string'
p219
g215
I1
g216
g217
I312
tp220
a(S'UnionMemberTypes -> OR UnionMemberType UnionMemberTypes'
p221
S'UnionMemberTypes'
p222
I3
S'p_UnionMemberTypes'
p223
S'blink_idl_parser.py'
p224
I319
tp225
a(S'UnionMemberTypes -> <empty>'
p226
g222
I0
g223
g224
I320
tp227
a(S'Exception -> EXCEPTION identifier Inheritance { ExceptionMembers } ;'
p228
S'Exception'
p229
I7
S'p_Exception'
p230
S'../../../../../tools/idl_parser/idl_parser.py'
p231
I321
tp232
a(S'ExceptionMembers -> ExtendedAttributeList ExceptionMember ExceptionMembers'
p233
S'ExceptionMembers'
p234
I3
S'p_ExceptionMembers'
p235
S'../../../../../tools/idl_parser/idl_parser.py'
p236
I326
tp237
a(S'ExceptionMembers -> <empty>'
p238
g234
I0
g235
g236
I327
tp239
a(S'TypeSuffix -> [ ] TypeSuffix'
p240
S'TypeSuffix'
p241
I3
S'p_TypeSuffix'
p242
S'blink_idl_parser.py'
p243
I327
tp244
a(S'TypeSuffix -> ? TypeSuffixStartingWithArray'
p245
g241
I2
g242
g243
I328
tp246
a(S'TypeSuffix -> <empty>'
p247
g241
I0
g242
g243
I329
tp248
a(S'ExceptionMembers -> error'
p249
S'ExceptionMembers'
p250
I1
S'p_ExceptionMembersError'
p251
S'../../../../../tools/idl_parser/idl_parser.py'
p252
I334
tp253
a(S'ExtendedAttributeIdentList -> identifier = identifier & IdentAndList'
p254
S'ExtendedAttributeIdentList'
p255
I5
S'p_ExtendedAttributeIdentList'
p256
S'blink_idl_parser.py'
p257
I337
tp258
a(S'ExtendedAttributeIdentList -> identifier = identifier | IdentOrList'
p259
g255
I5
g256
g257
I338
tp260
a(S'Inheritance -> : identifier'
p261
S'Inheritance'
p262
I2
S'p_Inheritance'
p263
S'../../../../../tools/idl_parser/idl_parser.py'
p264
I339
tp265
a(S'Inheritance -> <empty>'
p266
g262
I0
g263
g264
I340
tp267
a(S'IdentAndList -> identifier & IdentAndList'
p268
S'IdentAndList'
p269
I3
S'p_IdentAndList'
p270
S'blink_idl_parser.py'
p271
I344
tp272
a(S'IdentAndList -> identifier'
p273
g269
I1
g270
g271
I345
tp274
a(S'Enum -> ENUM identifier { EnumValueList } ;'
p275
S'Enum'
p276
I6
S'p_Enum'
p277
S'../../../../../tools/idl_parser/idl_parser.py'
p278
I346
tp279
a(S'Enum -> ENUM error ;'
p280
S'Enum'
p281
I3
S'p_EnumError'
p282
S'../../../../../tools/idl_parser/idl_parser.py'
p283
I351
tp284
a(S'IdentOrList -> identifier | IdentOrList'
p285
S'IdentOrList'
p286
I3
S'p_IdentOrList'
p287
S'blink_idl_parser.py'
p288
I353
tp289
a(S'IdentOrList -> identifier'
p290
g286
I1
g287
g288
I354
tp291
a(S'EnumValueList -> ExtendedAttributeList string EnumValueListComma'
p292
S'EnumValueList'
p293
I3
S'p_EnumValueList'
p294
S'../../../../../tools/idl_parser/idl_parser.py'
p295
I356
tp296
a(S'EnumValueListComma -> , EnumValueListString'
p297
S'EnumValueListComma'
p298
I2
S'p_EnumValueListComma'
p299
S'../../../../../tools/idl_parser/idl_parser.py'
p300
I362
tp301
a(S'EnumValueListComma -> <empty>'
p302
g298
I0
g299
g300
I363
tp303
a(S'ExtendedAttributeStringLiteralList -> identifier = StringLiteralOrList'
p304
S'ExtendedAttributeStringLiteralList'
p305
I3
S'p_ExtendedAttributeStringLiteralList'
p306
S'blink_idl_parser.py'
p307
I362
tp308
a(S'EnumValueListString -> ExtendedAttributeList string EnumValueListComma'
p309
S'EnumValueListString'
p310
I3
S'p_EnumValueListString'
p311
S'../../../../../tools/idl_parser/idl_parser.py'
p312
I369
tp313
a(S'EnumValueListString -> <empty>'
p314
g310
I0
g311
g312
I370
tp315
a(S'StringLiteralOrList -> StringLiteral | StringLiteralOrList'
p316
S'StringLiteralOrList'
p317
I3
S'p_StringLiteralOrList'
p318
S'blink_idl_parser.py'
p319
I369
tp320
a(S'StringLiteralOrList -> StringLiteral'
p321
g317
I1
g318
g319
I370
tp322
a(S'CallbackRest -> identifier = ReturnType ( ArgumentList ) ;'
p323
S'CallbackRest'
p324
I7
S'p_CallbackRest'
p325
S'../../../../../tools/idl_parser/idl_parser.py'
p326
I377
tp327
a(S'Typedef -> TYPEDEF ExtendedAttributeListNoComments Type identifier ;'
p328
S'Typedef'
p329
I5
S'p_Typedef'
p330
S'../../../../../tools/idl_parser/idl_parser.py'
p331
I383
tp332
a(S'Typedef -> TYPEDEF error ;'
p333
S'Typedef'
p334
I3
S'p_TypedefError'
p335
S'../../../../../tools/idl_parser/idl_parser.py'
p336
I388
tp337
a(S'ImplementsStatement -> identifier IMPLEMENTS identifier ;'
p338
S'ImplementsStatement'
p339
I4
S'p_ImplementsStatement'
p340
S'../../../../../tools/idl_parser/idl_parser.py'
p341
I393
tp342
a(S'Const -> CONST ConstType identifier = ConstValue ;'
p343
S'Const'
p344
I6
S'p_Const'
p345
S'../../../../../tools/idl_parser/idl_parser.py'
p346
I399
tp347
a(S'null -> NULL'
p348
S'null'
p349
I1
S'p_null'
p350
S'../../../../../tools/idl_parser/idl_parser.py'
p351
I417
tp352
a(S'BooleanLiteral -> TRUE'
p353
S'BooleanLiteral'
p354
I1
S'p_BooleanLiteral'
p355
S'../../../../../tools/idl_parser/idl_parser.py'
p356
I423
tp357
a(S'BooleanLiteral -> FALSE'
p358
g354
I1
g355
g356
I424
tp359
a(S'FloatLiteral -> float'
p360
S'FloatLiteral'
p361
I1
S'p_FloatLiteral'
p362
S'../../../../../tools/idl_parser/idl_parser.py'
p363
I430
tp364
a(S'FloatLiteral -> - INFINITY'
p365
g361
I2
g362
g363
I431
tp366
a(S'FloatLiteral -> INFINITY'
p367
g361
I1
g362
g363
I432
tp368
a(S'FloatLiteral -> NAN'
p369
g361
I1
g362
g363
I433
tp370
a(S'AttributeOrOperationOrIterator -> StaticMember'
p371
S'AttributeOrOperationOrIterator'
p372
I1
S'p_AttributeOrOperationOrIterator'
p373
S'../../../../../tools/idl_parser/idl_parser.py'
p374
I443
tp375
a(S'AttributeOrOperationOrIterator -> Attribute'
p376
g372
I1
g373
g374
I444
tp377
a(S'AttributeOrOperationOrIterator -> OperationOrIterator'
p378
g372
I1
g373
g374
I445
tp379
a(S'StaticMember -> STATIC StaticMemberRest'
p380
S'StaticMember'
p381
I2
S'p_StaticMember'
p382
S'../../../../../tools/idl_parser/idl_parser.py'
p383
I453
tp384
a(S'StaticMemberRest -> AttributeRest'
p385
S'StaticMemberRest'
p386
I1
S'p_StaticMemberRest'
p387
S'../../../../../tools/idl_parser/idl_parser.py'
p388
I459
tp389
a(S'StaticMemberRest -> ReturnType OperationRest'
p390
g386
I2
g387
g388
I460
tp391
a(S'Attribute -> Inherit AttributeRest'
p392
S'Attribute'
p393
I2
S'p_Attribute'
p394
S'../../../../../tools/idl_parser/idl_parser.py'
p395
I469
tp396
a(S'AttributeRest -> ReadOnly ATTRIBUTE Type identifier ;'
p397
S'AttributeRest'
p398
I5
S'p_AttributeRest'
p399
S'../../../../../tools/idl_parser/idl_parser.py'
p400
I475
tp401
a(S'Inherit -> INHERIT'
p402
S'Inherit'
p403
I1
S'p_Inherit'
p404
S'../../../../../tools/idl_parser/idl_parser.py'
p405
I481
tp406
a(S'Inherit -> <empty>'
p407
g403
I0
g404
g405
I482
tp408
a(S'ReadOnly -> READONLY'
p409
S'ReadOnly'
p410
I1
S'p_ReadOnly'
p411
S'../../../../../tools/idl_parser/idl_parser.py'
p412
I488
tp413
a(S'ReadOnly -> <empty>'
p414
g410
I0
g411
g412
I489
tp415
a(S'OperationOrIterator -> ReturnType OperationOrIteratorRest'
p416
S'OperationOrIterator'
p417
I2
S'p_OperationOrIterator'
p418
S'../../../../../tools/idl_parser/idl_parser.py'
p419
I495
tp420
a(S'OperationOrIterator -> SpecialOperation'
p421
g417
I1
g418
g419
I496
tp422
a(S'SpecialOperation -> Special Specials ReturnType OperationRest'
p423
S'SpecialOperation'
p424
I4
S'p_SpecialOperation'
p425
S'../../../../../tools/idl_parser/idl_parser.py'
p426
I505
tp427
a(S'Specials -> Special Specials'
p428
S'Specials'
p429
I2
S'p_Specials'
p430
S'../../../../../tools/idl_parser/idl_parser.py'
p431
I511
tp432
a(S'Specials -> <empty>'
p433
g429
I0
g430
g431
I512
tp434
a(S'Special -> GETTER'
p435
S'Special'
p436
I1
S'p_Special'
p437
S'../../../../../tools/idl_parser/idl_parser.py'
p438
I518
tp439
a(S'Special -> SETTER'
p440
g436
I1
g437
g438
I519
tp441
a(S'Special -> CREATOR'
p442
g436
I1
g437
g438
I520
tp443
a(S'Special -> DELETER'
p444
g436
I1
g437
g438
I521
tp445
a(S'Special -> LEGACYCALLER'
p446
g436
I1
g437
g438
I522
tp447
a(S'OperationOrIteratorRest -> OperationRest'
p448
S'OperationOrIteratorRest'
p449
I1
S'p_OperationOrIteratorRest'
p450
S'../../../../../tools/idl_parser/idl_parser.py'
p451
I527
tp452
a(S'OperationRest -> OptionalIdentifier ( ArgumentList ) ;'
p453
S'OperationRest'
p454
I5
S'p_OperationRest'
p455
S'../../../../../tools/idl_parser/idl_parser.py'
p456
I534
tp457
a(S'OptionalIdentifier -> identifier'
p458
S'OptionalIdentifier'
p459
I1
S'p_OptionalIdentifier'
p460
S'../../../../../tools/idl_parser/idl_parser.py'
p461
I540
tp462
a(S'OptionalIdentifier -> <empty>'
p463
g459
I0
g460
g461
I541
tp464
a(S'ArgumentList -> Argument Arguments'
p465
S'ArgumentList'
p466
I2
S'p_ArgumentList'
p467
S'../../../../../tools/idl_parser/idl_parser.py'
p468
I549
tp469
a(S'ArgumentList -> <empty>'
p470
g466
I0
g467
g468
I550
tp471
a(S'ArgumentList -> error'
p472
S'ArgumentList'
p473
I1
S'p_ArgumentListError'
p474
S'../../../../../tools/idl_parser/idl_parser.py'
p475
I556
tp476
a(S'Arguments -> , Argument Arguments'
p477
S'Arguments'
p478
I3
S'p_Arguments'
p479
S'../../../../../tools/idl_parser/idl_parser.py'
p480
I561
tp481
a(S'Arguments -> <empty>'
p482
g478
I0
g479
g480
I562
tp483
a(S'Argument -> ExtendedAttributeList OptionalOrRequiredArgument'
p484
S'Argument'
p485
I2
S'p_Argument'
p486
S'../../../../../tools/idl_parser/idl_parser.py'
p487
I568
tp488
a(S'OptionalOrRequiredArgument -> OPTIONAL Type ArgumentName Default'
p489
S'OptionalOrRequiredArgument'
p490
I4
S'p_OptionalOrRequiredArgument'
p491
S'../../../../../tools/idl_parser/idl_parser.py'
p492
I574
tp493
a(S'OptionalOrRequiredArgument -> Type Ellipsis ArgumentName'
p494
g490
I3
g491
g492
I575
tp495
a(S'ArgumentName -> ArgumentNameKeyword'
p496
S'ArgumentName'
p497
I1
S'p_ArgumentName'
p498
S'../../../../../tools/idl_parser/idl_parser.py'
p499
I585
tp500
a(S'ArgumentName -> identifier'
p501
g497
I1
g498
g499
I586
tp502
a(S'Ellipsis -> ELLIPSIS'
p503
S'Ellipsis'
p504
I1
S'p_Ellipsis'
p505
S'../../../../../tools/idl_parser/idl_parser.py'
p506
I591
tp507
a(S'Ellipsis -> <empty>'
p508
g504
I0
g505
g506
I592
tp509
a(S'ExceptionField -> Type identifier ;'
p510
S'ExceptionField'
p511
I3
S'p_ExceptionField'
p512
S'../../../../../tools/idl_parser/idl_parser.py'
p513
I605
tp514
a(S'ExceptionField -> error'
p515
S'ExceptionField'
p516
I1
S'p_ExceptionFieldError'
p517
S'../../../../../tools/idl_parser/idl_parser.py'
p518
I610
tp519
a(S'ExtendedAttributeListNoComments -> [ ExtendedAttribute ExtendedAttributes ]'
p520
S'ExtendedAttributeListNoComments'
p521
I4
S'p_ExtendedAttributeListNoComments'
p522
S'../../../../../tools/idl_parser/idl_parser.py'
p523
I615
tp524
a(S'ExtendedAttributeListNoComments -> <empty>'
p525
g521
I0
g522
g523
I616
tp526
a(S'ArgumentNameKeyword -> ATTRIBUTE'
p527
S'ArgumentNameKeyword'
p528
I1
S'p_ArgumentNameKeyword'
p529
S'../../../../../tools/idl_parser/idl_parser.py'
p530
I655
tp531
a(S'ArgumentNameKeyword -> CALLBACK'
p532
g528
I1
g529
g530
I656
tp533
a(S'ArgumentNameKeyword -> CONST'
p534
g528
I1
g529
g530
I657
tp535
a(S'ArgumentNameKeyword -> CREATOR'
p536
g528
I1
g529
g530
I658
tp537
a(S'ArgumentNameKeyword -> DELETER'
p538
g528
I1
g529
g530
I659
tp539
a(S'ArgumentNameKeyword -> DICTIONARY'
p540
g528
I1
g529
g530
I660
tp541
a(S'ArgumentNameKeyword -> ENUM'
p542
g528
I1
g529
g530
I661
tp543
a(S'ArgumentNameKeyword -> EXCEPTION'
p544
g528
I1
g529
g530
I662
tp545
a(S'ArgumentNameKeyword -> GETTER'
p546
g528
I1
g529
g530
I663
tp547
a(S'ArgumentNameKeyword -> IMPLEMENTS'
p548
g528
I1
g529
g530
I664
tp549
a(S'ArgumentNameKeyword -> INHERIT'
p550
g528
I1
g529
g530
I665
tp551
a(S'ArgumentNameKeyword -> LEGACYCALLER'
p552
g528
I1
g529
g530
I666
tp553
a(S'ArgumentNameKeyword -> PARTIAL'
p554
g528
I1
g529
g530
I667
tp555
a(S'ArgumentNameKeyword -> SERIALIZER'
p556
g528
I1
g529
g530
I668
tp557
a(S'ArgumentNameKeyword -> SETTER'
p558
g528
I1
g529
g530
I669
tp559
a(S'ArgumentNameKeyword -> STATIC'
p560
g528
I1
g529
g530
I670
tp561
a(S'ArgumentNameKeyword -> STRINGIFIER'
p562
g528
I1
g529
g530
I671
tp563
a(S'ArgumentNameKeyword -> TYPEDEF'
p564
g528
I1
g529
g530
I672
tp565
a(S'ArgumentNameKeyword -> UNRESTRICTED'
p566
g528
I1
g529
g530
I673
tp567
a(S'Type -> SingleType'
p568
S'Type'
p569
I1
S'p_Type'
p570
S'../../../../../tools/idl_parser/idl_parser.py'
p571
I678
tp572
a(S'Type -> UnionType TypeSuffix'
p573
g569
I2
g570
g571
I679
tp574
a(S'SingleType -> NonAnyType'
p575
S'SingleType'
p576
I1
S'p_SingleType'
p577
S'../../../../../tools/idl_parser/idl_parser.py'
p578
I687
tp579
a(S'SingleType -> ANY TypeSuffixStartingWithArray'
p580
g576
I2
g577
g578
I688
tp581
a(S'NonAnyType -> PrimitiveType TypeSuffix'
p582
S'NonAnyType'
p583
I2
S'p_NonAnyType'
p584
S'../../../../../tools/idl_parser/idl_parser.py'
p585
I713
tp586
a(S'NonAnyType -> identifier TypeSuffix'
p587
g583
I2
g584
g585
I714
tp588
a(S'NonAnyType -> SEQUENCE < Type > Null'
p589
g583
I5
g584
g585
I715
tp590
a(S'ConstType -> PrimitiveType Null'
p591
S'ConstType'
p592
I2
S'p_ConstType'
p593
S'../../../../../tools/idl_parser/idl_parser.py'
p594
I729
tp595
a(S'ConstType -> identifier Null'
p596
g592
I2
g593
g594
I730
tp597
a(S'PrimitiveType -> UnsignedIntegerType'
p598
S'PrimitiveType'
p599
I1
S'p_PrimitiveType'
p600
S'../../../../../tools/idl_parser/idl_parser.py'
p601
I740
tp602
a(S'PrimitiveType -> UnrestrictedFloatType'
p603
g599
I1
g600
g601
I741
tp604
a(S'PrimitiveType -> BOOLEAN'
p605
g599
I1
g600
g601
I742
tp606
a(S'PrimitiveType -> BYTE'
p607
g599
I1
g600
g601
I743
tp608
a(S'PrimitiveType -> OCTET'
p609
g599
I1
g600
g601
I744
tp610
a(S'PrimitiveType -> BYTESTRING'
p611
g599
I1
g600
g601
I745
tp612
a(S'PrimitiveType -> DOMSTRING'
p613
g599
I1
g600
g601
I746
tp614
a(S'PrimitiveType -> OBJECT'
p615
g599
I1
g600
g601
I747
tp616
a(S'PrimitiveType -> DATE'
p617
g599
I1
g600
g601
I748
tp618
a(S'PrimitiveType -> REGEXP'
p619
g599
I1
g600
g601
I749
tp620
a(S'UnrestrictedFloatType -> UNRESTRICTED FloatType'
p621
S'UnrestrictedFloatType'
p622
I2
S'p_UnrestrictedFloatType'
p623
S'../../../../../tools/idl_parser/idl_parser.py'
p624
I758
tp625
a(S'UnrestrictedFloatType -> FloatType'
p626
g622
I1
g623
g624
I759
tp627
a(S'FloatType -> FLOAT'
p628
S'FloatType'
p629
I1
S'p_FloatType'
p630
S'../../../../../tools/idl_parser/idl_parser.py'
p631
I770
tp632
a(S'FloatType -> DOUBLE'
p633
g629
I1
g630
g631
I771
tp634
a(S'UnsignedIntegerType -> UNSIGNED IntegerType'
p635
S'UnsignedIntegerType'
p636
I2
S'p_UnsignedIntegerType'
p637
S'../../../../../tools/idl_parser/idl_parser.py'
p638
I776
tp639
a(S'UnsignedIntegerType -> IntegerType'
p640
g636
I1
g637
g638
I777
tp641
a(S'IntegerType -> SHORT'
p642
S'IntegerType'
p643
I1
S'p_IntegerType'
p644
S'../../../../../tools/idl_parser/idl_parser.py'
p645
I785
tp646
a(S'IntegerType -> LONG OptionalLong'
p647
g643
I2
g644
g645
I786
tp648
a(S'OptionalLong -> LONG'
p649
S'OptionalLong'
p650
I1
S'p_OptionalLong'
p651
S'../../../../../tools/idl_parser/idl_parser.py'
p652
I794
tp653
a(S'OptionalLong -> <empty>'
p654
g650
I0
g651
g652
I795
tp655
a(S'TypeSuffixStartingWithArray -> [ ] TypeSuffix'
p656
S'TypeSuffixStartingWithArray'
p657
I3
S'p_TypeSuffixStartingWithArray'
p658
S'../../../../../tools/idl_parser/idl_parser.py'
p659
I820
tp660
a(S'TypeSuffixStartingWithArray -> <empty>'
p661
g657
I0
g658
g659
I821
tp662
a(S'Null -> ?'
p663
S'Null'
p664
I1
S'p_Null'
p665
S'../../../../../tools/idl_parser/idl_parser.py'
p666
I827
tp667
a(S'Null -> <empty>'
p668
g664
I0
g665
g666
I828
tp669
a(S'ReturnType -> Type'
p670
S'ReturnType'
p671
I1
S'p_ReturnType'
p672
S'../../../../../tools/idl_parser/idl_parser.py'
p673
I834
tp674
a(S'ReturnType -> VOID'
p675
g671
I1
g672
g673
I835
tp676
a(S'ExtendedAttributeNoArgs -> identifier'
p677
S'ExtendedAttributeNoArgs'
p678
I1
S'p_ExtendedAttributeNoArgs'
p679
S'../../../../../tools/idl_parser/idl_parser.py'
p680
I846
tp681
a(S'ExtendedAttributeArgList -> identifier ( ArgumentList )'
p682
S'ExtendedAttributeArgList'
p683
I4
S'p_ExtendedAttributeArgList'
p684
S'../../../../../tools/idl_parser/idl_parser.py'
p685
I851
tp686
a(S'ExtendedAttributeIdent -> identifier = identifier'
p687
S'ExtendedAttributeIdent'
p688
I3
S'p_ExtendedAttributeIdent'
p689
S'../../../../../tools/idl_parser/idl_parser.py'
p690
I857
tp691
a(S'ExtendedAttributeNamedArgList -> identifier = identifier ( ArgumentList )'
p692
S'ExtendedAttributeNamedArgList'
p693
I6
S'p_ExtendedAttributeNamedArgList'
p694
S'../../../../../tools/idl_parser/idl_parser.py'
p695
I865
tp696
a.