(dp1
S'Window'
p2
(lp3
S'Window'
p4
asS'ServiceWorkerGlobalScope'
p5
(lp6
S'Worker'
p7
aS'ServiceWorker'
p8
asS'DedicatedWorkerGlobalScope'
p9
(lp10
S'Worker'
p11
aS'DedicatedWorker'
p12
asS'SharedWorkerGlobalScope'
p13
(lp14
S'Worker'
p15
aS'SharedWorker'
p16
as.