(dp1
S'interfaces_info'
p2
(dp3
S'StorageUsageCallback'
p4
(dp5
S'component_dir'
p6
S'modules'
p7
sS'is_legacy_treat_as_partial_interface'
p8
I00
sS'include_path'
p9
S'modules/quota/StorageUsageCallback.h'
p10
sS'parent'
p11
NsS'implemented_by_interfaces'
p12
(lp13
sS'implements_interfaces'
p14
(lp15
sS'implemented_as'
p16
NsS'extended_attributes'
p17
(dp18
sS'referenced_interfaces'
p19
(lp20
sS'is_callback_interface'
p21
I01
sS'full_path'
p22
S'/media/code_dev/code_prj/blink_db/blink_core/lib/chromium_org/third_party/WebKit/Source/modules/quota/StorageUsageCallback.idl'
p23
ssS'SubtleCrypto'
p24
(dp25
g6
g7
sg8
I00
sg9
S'modules/crypto/SubtleCrypto.h'
p26
sg11
Nsg12
(lp27
sg14
(lp28
sg16
Nsg17
(dp29
S'GarbageCollected'
p30
S''
sS'NoInterfaceObject'
p31
S''
ssg19
(lp32
sg21
I00
sg22
S'/media/code_dev/code_prj/blink_db/blink_core/lib/chromium_org/third_party/WebKit/Source/modules/crypto/SubtleCrypto.idl'
p33
ssS'MIDIPort'
p34
(dp35
g6
g7
sg8
I00
sg9
S'modules/webmidi/MIDIPort.h'
p36
sg11
S'EventTarget'
p37
sg12
(lp38
sg14
(lp39
sg16
Nsg17
(dp40
S'NoInterfaceObject'
p41
S''
ssg19
(lp42
sg21
I00
sg22
S'/media/code_dev/code_prj/blink_db/blink_core/lib/chromium_org/third_party/WebKit/Source/modules/webmidi/MIDIPort.idl'
p43
ssS'GamepadEvent'
p44
(dp45
g6
g7
sg8
I00
sg9
S'modules/gamepad/GamepadEvent.h'
p46
sg11
S'Event'
p47
sg12
(lp48
sg14
(lp49
sg16
Nsg17
(dp50
S'EventConstructor'
p51
S''
ssg19
(lp52
sg21
I00
sg22
S'/media/code_dev/code_prj/blink_db/blink_core/lib/chromium_org/third_party/WebKit/Source/modules/gamepad/GamepadEvent.idl'
p53
ssS'DatabaseCallback'
p54
(dp55
g6
g7
sg8
I00
sg9
S'modules/webdatabase/DatabaseCallback.h'
p56
sg11
Nsg12
(lp57
sg14
(lp58
sg16
Nsg17
(dp59
sg19
(lp60
sg21
I01
sg22
S'/media/code_dev/code_prj/blink_db/blink_core/lib/chromium_org/third_party/WebKit/Source/modules/webdatabase/DatabaseCallback.idl'
p61
ssS'RTCSessionDescriptionCallback'
p62
(dp63
g6
g7
sg8
I00
sg9
S'modules/mediastream/RTCSessionDescriptionCallback.h'
p64
sg11
Nsg12
(lp65
sg14
(lp66
sg16
Nsg17
(dp67
sg19
(lp68
sg21
I01
sg22
S'/media/code_dev/code_prj/blink_db/blink_core/lib/chromium_org/third_party/WebKit/Source/modules/mediastream/RTCSessionDescriptionCallback.idl'
p69
ssS'DeviceLightEvent'
p70
(dp71
g6
g7
sg8
I00
sg9
S'modules/device_light/DeviceLightEvent.h'
p72
sg11
S'Event'
p73
sg12
(lp74
sg14
(lp75
sg16
Nsg17
(dp76
S'RuntimeEnabled'
p77
S'DeviceLight'
p78
sS'EventConstructor'
p79
S''
ssg19
(lp80
sg21
I00
sg22
S'/media/code_dev/code_prj/blink_db/blink_core/lib/chromium_org/third_party/WebKit/Source/modules/device_light/DeviceLightEvent.idl'
p81
ssS'InstallPhaseEvent'
p82
(dp83
g6
g7
sg8
I00
sg9
S'modules/serviceworkers/InstallPhaseEvent.h'
p84
sg11
S'Event'
p85
sg12
(lp86
sg14
(lp87
sg16
Nsg17
(dp88
S'RuntimeEnabled'
p89
S'ServiceWorker'
p90
sS'Exposed'
p91
S'ServiceWorker'
p92
ssg19
(lp93
sg21
I00
sg22
S'/media/code_dev/code_prj/blink_db/blink_core/lib/chromium_org/third_party/WebKit/Source/modules/serviceworkers/InstallPhaseEvent.idl'
p94
ssS'FileSystemCallback'
p95
(dp96
g6
g7
sg8
I00
sg9
S'modules/filesystem/FileSystemCallback.h'
p97
sg11
Nsg12
(lp98
sg14
(lp99
sg16
Nsg17
(dp100
sg19
(lp101
sg21
I01
sg22
S'/media/code_dev/code_prj/blink_db/blink_core/lib/chromium_org/third_party/WebKit/Source/modules/filesystem/FileSystemCallback.idl'
p102
ssS'SQLStatementCallback'
p103
(dp104
g6
g7
sg8
I00
sg9
S'modules/webdatabase/SQLStatementCallback.h'
p105
sg11
Nsg12
(lp106
sg14
(lp107
sg16
Nsg17
(dp108
sg19
(lp109
sg21
I01
sg22
S'/media/code_dev/code_prj/blink_db/blink_core/lib/chromium_org/third_party/WebKit/Source/modules/webdatabase/SQLStatementCallback.idl'
p110
ssS'DelayNode'
p111
(dp112
g6
g7
sg8
I00
sg9
S'modules/webaudio/DelayNode.h'
p113
sg11
S'AudioNode'
p114
sg12
(lp115
sg14
(lp116
sg16
Nsg17
(dp117
S'Conditional'
p118
S'WEB_AUDIO'
p119
ssg19
(lp120
sg21
I00
sg22
S'/media/code_dev/code_prj/blink_db/blink_core/lib/chromium_org/third_party/WebKit/Source/modules/webaudio/DelayNode.idl'
p121
ssS'SpeechSynthesisVoice'
p122
(dp123
g6
g7
sg8
I00
sg9
S'modules/speech/SpeechSynthesisVoice.h'
p124
sg11
Nsg12
(lp125
sg14
(lp126
sg16
Nsg17
(dp127
S'RuntimeEnabled'
p128
S'SpeechSynthesis'
p129
sS'GarbageCollected'
p130
S''
sS'NoInterfaceObject'
p131
S''
ssg19
(lp132
sg21
I00
sg22
S'/media/code_dev/code_prj/blink_db/blink_core/lib/chromium_org/third_party/WebKit/Source/modules/speech/SpeechSynthesisVoice.idl'
p133
ssS'Metadata'
p134
(dp135
g6
g7
sg8
I00
sg9
S'modules/filesystem/Metadata.h'
p136
sg11
Nsg12
(lp137
sg14
(lp138
sg16
Nsg17
(dp139
S'GarbageCollected'
p140
S''
sS'NoInterfaceObject'
p141
S''
ssg19
(lp142
sg21
I00
sg22
S'/media/code_dev/code_prj/blink_db/blink_core/lib/chromium_org/third_party/WebKit/Source/modules/filesystem/Metadata.idl'
p143
ssS'GamepadButton'
p144
(dp145
g6
g7
sg8
I00
sg9
S'modules/gamepad/GamepadButton.h'
p146
sg11
Nsg12
(lp147
sg14
(lp148
sg16
Nsg17
(dp149
S'GarbageCollected'
p150
S''
sS'NoInterfaceObject'
p151
S''
ssg19
(lp152
sg21
I00
sg22
S'/media/code_dev/code_prj/blink_db/blink_core/lib/chromium_org/third_party/WebKit/Source/modules/gamepad/GamepadButton.idl'
p153
ssS'IDBOpenDBRequest'
p154
(dp155
g6
g7
sg8
I00
sg9
S'modules/indexeddb/IDBOpenDBRequest.h'
p156
sg11
S'IDBRequest'
p157
sg12
(lp158
sg14
(lp159
sg16
Nsg17
(dp160
sg19
(lp161
sg21
I00
sg22
S'/media/code_dev/code_prj/blink_db/blink_core/lib/chromium_org/third_party/WebKit/Source/modules/indexeddb/IDBOpenDBRequest.idl'
p162
ssS'MIDIAccess'
p163
(dp164
g6
g7
sg8
I00
sg9
S'modules/webmidi/MIDIAccess.h'
p165
sg11
S'EventTarget'
p166
sg12
(lp167
sg14
(lp168
sg16
Nsg17
(dp169
S'ActiveDOMObject'
p170
S''
sS'NoInterfaceObject'
p171
S''
ssg19
(lp172
sg21
I00
sg22
S'/media/code_dev/code_prj/blink_db/blink_core/lib/chromium_org/third_party/WebKit/Source/modules/webmidi/MIDIAccess.idl'
p173
ssS'HeaderMap'
p174
(dp175
g6
g7
sg8
I00
sg9
S'modules/serviceworkers/HeaderMap.h'
p176
sg11
Nsg12
(lp177
sg14
(lp178
sg16
Nsg17
(dp179
S'RuntimeEnabled'
p180
S'ServiceWorker'
p181
sS'Exposed'
p182
S'ServiceWorker'
p183
sS'Constructor'
p184
S''
ssg19
(lp185
sg21
I00
sg22
S'/media/code_dev/code_prj/blink_db/blink_core/lib/chromium_org/third_party/WebKit/Source/modules/serviceworkers/HeaderMap.idl'
p186
ssS'MediaStreamAudioSourceNode'
p187
(dp188
g6
g7
sg8
I00
sg9
S'modules/webaudio/MediaStreamAudioSourceNode.h'
p189
sg11
S'AudioSourceNode'
p190
sg12
(lp191
sg14
(lp192
sg16
Nsg17
(dp193
S'Conditional'
p194
S'WEB_AUDIO'
p195
ssg19
(lp196
sg21
I00
sg22
S'/media/code_dev/code_prj/blink_db/blink_core/lib/chromium_org/third_party/WebKit/Source/modules/webaudio/MediaStreamAudioSourceNode.idl'
p197
ssS'MediaKeyNeededEvent'
p198
(dp199
g6
g7
sg8
I00
sg9
S'modules/encryptedmedia/MediaKeyNeededEvent.h'
p200
sg11
S'Event'
p201
sg12
(lp202
sg14
(lp203
sg16
Nsg17
(dp204
S'RuntimeEnabled'
p205
S'EncryptedMedia'
p206
sS'EventConstructor'
p207
S''
ssg19
(lp208
sg21
I00
sg22
S'/media/code_dev/code_prj/blink_db/blink_core/lib/chromium_org/third_party/WebKit/Source/modules/encryptedmedia/MediaKeyNeededEvent.idl'
p209
ssS'DeviceMotionEvent'
p210
(dp211
g6
g7
sg8
I00
sg9
S'modules/device_orientation/DeviceMotionEvent.h'
p212
sg11
S'Event'
p213
sg12
(lp214
sg14
(lp215
sg16
Nsg17
(dp216
sg19
(lp217
sg21
I00
sg22
S'/media/code_dev/code_prj/blink_db/blink_core/lib/chromium_org/third_party/WebKit/Source/modules/device_orientation/DeviceMotionEvent.idl'
p218
ssS'DeviceAcceleration'
p219
(dp220
g6
g7
sg8
I00
sg9
S'modules/device_orientation/DeviceAcceleration.h'
p221
sg11
Nsg12
(lp222
sg14
(lp223
sg16
Nsg17
(dp224
S'WillBeGarbageCollected'
p225
S''
sS'NoInterfaceObject'
p226
S''
ssg19
(lp227
sg21
I00
sg22
S'/media/code_dev/code_prj/blink_db/blink_core/lib/chromium_org/third_party/WebKit/Source/modules/device_orientation/DeviceAcceleration.idl'
p228
ssS'MetadataCallback'
p229
(dp230
g6
g7
sg8
I00
sg9
S'modules/filesystem/MetadataCallback.h'
p231
sg11
Nsg12
(lp232
sg14
(lp233
sg16
Nsg17
(dp234
sg19
(lp235
sg21
I01
sg22
S'/media/code_dev/code_prj/blink_db/blink_core/lib/chromium_org/third_party/WebKit/Source/modules/filesystem/MetadataCallback.idl'
p236
ssS'SQLStatementErrorCallback'
p237
(dp238
g6
g7
sg8
I00
sg9
S'modules/webdatabase/SQLStatementErrorCallback.h'
p239
sg11
Nsg12
(lp240
sg14
(lp241
sg16
Nsg17
(dp242
sg19
(lp243
sg21
I01
sg22
S'/media/code_dev/code_prj/blink_db/blink_core/lib/chromium_org/third_party/WebKit/Source/modules/webdatabase/SQLStatementErrorCallback.idl'
p244
ssS'PositionError'
p245
(dp246
g6
g7
sg8
I00
sg9
S'modules/geolocation/PositionError.h'
p247
sg11
Nsg12
(lp248
sg14
(lp249
sg16
Nsg17
(dp250
S'GarbageCollected'
p251
S''
sS'NoInterfaceObject'
p252
S''
ssg19
(lp253
sg21
I00
sg22
S'/media/code_dev/code_prj/blink_db/blink_core/lib/chromium_org/third_party/WebKit/Source/modules/geolocation/PositionError.idl'
p254
ssS'DOMFileSystem'
p255
(dp256
g6
g7
sg8
I00
sg9
S'modules/filesystem/DOMFileSystem.h'
p257
sg11
Nsg12
(lp258
sg14
(lp259
sg16
Nsg17
(dp260
S'ActiveDOMObject'
p261
S''
sS'GarbageCollected'
p262
S''
sS'NoInterfaceObject'
p263
S''
ssg19
(lp264
sg21
I00
sg22
S'/media/code_dev/code_prj/blink_db/blink_core/lib/chromium_org/third_party/WebKit/Source/modules/filesystem/DOMFileSystem.idl'
p265
ssS'InstallEvent'
p266
(dp267
g6
g7
sg8
I00
sg9
S'modules/serviceworkers/InstallEvent.h'
p268
sg11
S'InstallPhaseEvent'
p269
sg12
(lp270
sg14
(lp271
sg16
Nsg17
(dp272
S'RuntimeEnabled'
p273
S'ServiceWorker'
p274
sS'Exposed'
p275
S'ServiceWorker'
p276
ssg19
(lp277
sg21
I00
sg22
S'/media/code_dev/code_prj/blink_db/blink_core/lib/chromium_org/third_party/WebKit/Source/modules/serviceworkers/InstallEvent.idl'
p278
ssS'BatteryManager'
p279
(dp280
g6
g7
sg8
I00
sg9
S'modules/battery/BatteryManager.h'
p281
sg11
S'EventTarget'
p282
sg12
(lp283
sg14
(lp284
sg16
Nsg17
(dp285
S'RuntimeEnabled'
p286
S'BatteryStatus'
p287
sS'TypeChecking'
p288
S'Unrestricted'
p289
ssg19
(lp290
sg21
I00
sg22
S'/media/code_dev/code_prj/blink_db/blink_core/lib/chromium_org/third_party/WebKit/Source/modules/battery/BatteryManager.idl'
p291
ssS'RsaHashedKeyAlgorithm'
p292
(dp293
g6
g7
sg8
I00
sg9
S'modules/crypto/RsaHashedKeyAlgorithm.h'
p294
sg11
S'RsaKeyAlgorithm'
p295
sg12
(lp296
sg14
(lp297
sg16
Nsg17
(dp298
S'NoInterfaceObject'
p299
S''
ssg19
(lp300
sg21
I00
sg22
S'/media/code_dev/code_prj/blink_db/blink_core/lib/chromium_org/third_party/WebKit/Source/modules/crypto/RsaHashedKeyAlgorithm.idl'
p301
ssS'Coordinates'
p302
(dp303
g6
g7
sg8
I00
sg9
S'modules/geolocation/Coordinates.h'
p304
sg11
Nsg12
(lp305
sg14
(lp306
sg16
Nsg17
(dp307
S'GarbageCollected'
p308
S''
sS'NoInterfaceObject'
p309
S''
ssg19
(lp310
sg21
I00
sg22
S'/media/code_dev/code_prj/blink_db/blink_core/lib/chromium_org/third_party/WebKit/Source/modules/geolocation/Coordinates.idl'
p311
ssS'SQLTransactionErrorCallback'
p312
(dp313
g6
g7
sg8
I00
sg9
S'modules/webdatabase/SQLTransactionErrorCallback.h'
p314
sg11
Nsg12
(lp315
sg14
(lp316
sg16
Nsg17
(dp317
sg19
(lp318
sg21
I01
sg22
S'/media/code_dev/code_prj/blink_db/blink_core/lib/chromium_org/third_party/WebKit/Source/modules/webdatabase/SQLTransactionErrorCallback.idl'
p319
ssS'ErrorCallback'
p320
(dp321
g6
g7
sg8
I00
sg9
S'modules/filesystem/ErrorCallback.h'
p322
sg11
Nsg12
(lp323
sg14
(lp324
sg16
Nsg17
(dp325
sg19
(lp326
sg21
I01
sg22
S'/media/code_dev/code_prj/blink_db/blink_core/lib/chromium_org/third_party/WebKit/Source/modules/filesystem/ErrorCallback.idl'
p327
ssS'MediaKeySession'
p328
(dp329
g6
g7
sg8
I00
sg9
S'modules/encryptedmedia/MediaKeySession.h'
p330
sg11
S'EventTarget'
p331
sg12
(lp332
sg14
(lp333
sg16
Nsg17
(dp334
S'ActiveDOMObject'
p335
S''
sS'RuntimeEnabled'
p336
S'EncryptedMedia'
p337
sS'GarbageCollected'
p338
S''
sS'TypeChecking'
p339
S'Interface|Nullable'
p340
ssg19
(lp341
sg21
I00
sg22
S'/media/code_dev/code_prj/blink_db/blink_core/lib/chromium_org/third_party/WebKit/Source/modules/encryptedmedia/MediaKeySession.idl'
p342
ssS'StorageErrorCallback'
p343
(dp344
g6
g7
sg8
I00
sg9
S'modules/quota/StorageErrorCallback.h'
p345
sg11
Nsg12
(lp346
sg14
(lp347
sg16
Nsg17
(dp348
sg19
(lp349
sg21
I01
sg22
S'/media/code_dev/code_prj/blink_db/blink_core/lib/chromium_org/third_party/WebKit/Source/modules/quota/StorageErrorCallback.idl'
p350
ssS'AnalyserNode'
p351
(dp352
g6
g7
sg8
I00
sg9
S'modules/webaudio/AnalyserNode.h'
p353
sg11
S'AudioNode'
p354
sg12
(lp355
sg14
(lp356
sg16
Nsg17
(dp357
S'Conditional'
p358
S'WEB_AUDIO'
p359
ssg19
(lp360
sg21
I00
sg22
S'/media/code_dev/code_prj/blink_db/blink_core/lib/chromium_org/third_party/WebKit/Source/modules/webaudio/AnalyserNode.idl'
p361
ssS'DeprecatedStorageQuota'
p362
(dp363
g6
g7
sg8
I00
sg9
S'modules/quota/DeprecatedStorageQuota.h'
p364
sg11
Nsg12
(lp365
sg14
(lp366
sg16
Nsg17
(dp367
S'GarbageCollected'
p368
S''
sS'NoInterfaceObject'
p369
S''
ssg19
(lp370
sg21
I00
sg22
S'/media/code_dev/code_prj/blink_db/blink_core/lib/chromium_org/third_party/WebKit/Source/modules/quota/DeprecatedStorageQuota.idl'
p371
ssS'FileWriterCallback'
p372
(dp373
g6
g7
sg8
I00
sg9
S'modules/filesystem/FileWriterCallback.h'
p374
sg11
Nsg12
(lp375
sg14
(lp376
sg16
Nsg17
(dp377
sg19
(lp378
sg21
I01
sg22
S'/media/code_dev/code_prj/blink_db/blink_core/lib/chromium_org/third_party/WebKit/Source/modules/filesystem/FileWriterCallback.idl'
p379
ssS'MIDIOutput'
p380
(dp381
g6
g7
sg8
I00
sg9
S'modules/webmidi/MIDIOutput.h'
p382
sg11
S'MIDIPort'
p383
sg12
(lp384
sg14
(lp385
sg16
Nsg17
(dp386
S'SetWrapperReferenceTo(MIDIAccess midiAccess)'
p387
S''
sS'NoInterfaceObject'
p388
S''
ssg19
(lp389
sg21
I00
sg22
S'/media/code_dev/code_prj/blink_db/blink_core/lib/chromium_org/third_party/WebKit/Source/modules/webmidi/MIDIOutput.idl'
p390
ssS'AudioBuffer'
p391
(dp392
g6
g7
sg8
I00
sg9
S'modules/webaudio/AudioBuffer.h'
p393
sg11
Nsg12
(lp394
sg14
(lp395
sg16
Nsg17
(dp396
S'WillBeGarbageCollected'
p397
S''
sS'Conditional'
p398
S'WEB_AUDIO'
p399
ssg19
(lp400
sg21
I00
sg22
S'/media/code_dev/code_prj/blink_db/blink_core/lib/chromium_org/third_party/WebKit/Source/modules/webaudio/AudioBuffer.idl'
p401
ssS'RTCPeerConnection'
p402
(dp403
g6
g7
sg8
I00
sg9
S'modules/mediastream/RTCPeerConnection.h'
p404
sg11
S'EventTarget'
p405
sg12
(lp406
sg14
(lp407
sg16
Nsg17
(dp408
S'optional Dictionary mediaConstraints)'
p409
S''
sS'Constructor(Dictionary rtcIceServers'
p410
S''
sS'WillBeGarbageCollected'
p411
S''
sS'NoInterfaceObject'
p412
S''
sS'RaisesException'
p413
S'Constructor'
p414
sS'ConstructorCallWith'
p415
S'ExecutionContext'
p416
sS'ActiveDOMObject'
p417
S''
ssg19
(lp418
sg21
I00
sg22
S'/media/code_dev/code_prj/blink_db/blink_core/lib/chromium_org/third_party/WebKit/Source/modules/mediastream/RTCPeerConnection.idl'
p419
ssS'FileEntrySync'
p420
(dp421
g6
g7
sg8
I00
sg9
S'modules/filesystem/FileEntrySync.h'
p422
sg11
S'EntrySync'
p423
sg12
(lp424
sg14
(lp425
sg16
Nsg17
(dp426
S'NoInterfaceObject'
p427
S''
ssg19
(lp428
sg21
I00
sg22
S'/media/code_dev/code_prj/blink_db/blink_core/lib/chromium_org/third_party/WebKit/Source/modules/filesystem/FileEntrySync.idl'
p429
ssS'TextEncoder'
p430
(dp431
g6
g7
sg8
I00
sg9
S'modules/encoding/TextEncoder.h'
p432
sg11
Nsg12
(lp433
sg14
(lp434
sg16
Nsg17
(dp435
S'Constructor(optional DOMString utfLabel'
p436
S'null)'
p437
sS'Exposed'
p438
S'Window&Worker'
p439
sS'RuntimeEnabled'
p440
S'EncodingAPI'
p441
sS'GarbageCollected'
p442
S''
sS'RaisesException'
p443
S'Constructor'
p444
sS'MeasureAs'
p445
S'TextEncoderConstructor'
p446
ssg19
(lp447
sg21
I00
sg22
S'/media/code_dev/code_prj/blink_db/blink_core/lib/chromium_org/third_party/WebKit/Source/modules/encoding/TextEncoder.idl'
p448
ssS'SQLError'
p449
(dp450
g6
g7
sg8
I00
sg9
S'modules/webdatabase/SQLError.h'
p451
sg11
Nsg12
(lp452
sg14
(lp453
sg16
Nsg17
(dp454
S'WillBeGarbageCollected'
p455
S''
sS'NoInterfaceObject'
p456
S''
ssg19
(lp457
sg21
I00
sg22
S'/media/code_dev/code_prj/blink_db/blink_core/lib/chromium_org/third_party/WebKit/Source/modules/webdatabase/SQLError.idl'
p458
ssS'RTCStatsReport'
p459
(dp460
g6
g7
sg8
I00
sg9
S'modules/mediastream/RTCStatsReport.h'
p461
sg11
Nsg12
(lp462
sg14
(lp463
sg16
Nsg17
(dp464
S'WillBeGarbageCollected'
p465
S''
sS'NoInterfaceObject'
p466
S''
ssg19
(lp467
sg21
I00
sg22
S'/media/code_dev/code_prj/blink_db/blink_core/lib/chromium_org/third_party/WebKit/Source/modules/mediastream/RTCStatsReport.idl'
p468
ssS'DeviceRotationRate'
p469
(dp470
g6
g7
sg8
I00
sg9
S'modules/device_orientation/DeviceRotationRate.h'
p471
sg11
Nsg12
(lp472
sg14
(lp473
sg16
Nsg17
(dp474
S'WillBeGarbageCollected'
p475
S''
sS'NoInterfaceObject'
p476
S''
ssg19
(lp477
sg21
I00
sg22
S'/media/code_dev/code_prj/blink_db/blink_core/lib/chromium_org/third_party/WebKit/Source/modules/device_orientation/DeviceRotationRate.idl'
p478
ssS'SourceInfo'
p479
(dp480
g6
g7
sg8
I00
sg9
S'modules/mediastream/SourceInfo.h'
p481
sg11
Nsg12
(lp482
sg14
(lp483
sg16
Nsg17
(dp484
S'WillBeGarbageCollected'
p485
S''
sS'NoInterfaceObject'
p486
S''
ssg19
(lp487
sg21
I00
sg22
S'/media/code_dev/code_prj/blink_db/blink_core/lib/chromium_org/third_party/WebKit/Source/modules/mediastream/SourceInfo.idl'
p488
ssS'SQLTransactionSync'
p489
(dp490
g6
g7
sg8
I00
sg9
S'modules/webdatabase/SQLTransactionSync.h'
p491
sg11
Nsg12
(lp492
sg14
(lp493
sg16
Nsg17
(dp494
S'WillBeGarbageCollected'
p495
S''
sS'NoInterfaceObject'
p496
S''
ssg19
(lp497
sg21
I00
sg22
S'/media/code_dev/code_prj/blink_db/blink_core/lib/chromium_org/third_party/WebKit/Source/modules/webdatabase/SQLTransactionSync.idl'
p498
ssS'KeyAlgorithm'
p499
(dp500
g6
g7
sg8
I00
sg9
S'modules/crypto/KeyAlgorithm.h'
p501
sg11
Nsg12
(lp502
sg14
(lp503
sg16
Nsg17
(dp504
S'GarbageCollected'
p505
S''
sS'SpecialWrapFor'
p506
S'AesKeyAlgorithm|HmacKeyAlgorithm|RsaHashedKeyAlgorithm'
p507
sS'NoInterfaceObject'
p508
S''
ssg19
(lp509
sg21
I00
sg22
S'/media/code_dev/code_prj/blink_db/blink_core/lib/chromium_org/third_party/WebKit/Source/modules/crypto/KeyAlgorithm.idl'
p510
ssS'MediaElementAudioSourceNode'
p511
(dp512
g6
g7
sg8
I00
sg9
S'modules/webaudio/MediaElementAudioSourceNode.h'
p513
sg11
S'AudioSourceNode'
p514
sg12
(lp515
sg14
(lp516
sg16
Nsg17
(dp517
S'Conditional'
p518
S'WEB_AUDIO'
p519
ssg19
(lp520
sg21
I00
sg22
S'/media/code_dev/code_prj/blink_db/blink_core/lib/chromium_org/third_party/WebKit/Source/modules/webaudio/MediaElementAudioSourceNode.idl'
p521
ssS'EntrySync'
p522
(dp523
g6
g7
sg8
I00
sg9
S'modules/filesystem/EntrySync.h'
p524
sg11
Nsg12
(lp525
sg14
(lp526
sg16
Nsg17
(dp527
S'GarbageCollected'
p528
S''
sS'NoInterfaceObject'
p529
S''
sS'Custom'
p530
S'Wrap'
p531
ssg19
(lp532
sg21
I00
sg22
S'/media/code_dev/code_prj/blink_db/blink_core/lib/chromium_org/third_party/WebKit/Source/modules/filesystem/EntrySync.idl'
p533
ssS'HmacKeyAlgorithm'
p534
(dp535
g6
g7
sg8
I00
sg9
S'modules/crypto/HmacKeyAlgorithm.h'
p536
sg11
S'KeyAlgorithm'
p537
sg12
(lp538
sg14
(lp539
sg16
Nsg17
(dp540
S'NoInterfaceObject'
p541
S''
ssg19
(lp542
sg21
I00
sg22
S'/media/code_dev/code_prj/blink_db/blink_core/lib/chromium_org/third_party/WebKit/Source/modules/crypto/HmacKeyAlgorithm.idl'
p543
ssS'ServiceWorkerGlobalScope'
p544
(dp545
g6
g7
sg8
I00
sg9
S'modules/serviceworkers/ServiceWorkerGlobalScope.h'
p546
sg11
S'WorkerGlobalScope'
p547
sg12
(lp548
sg14
(lp549
sg16
Nsg17
(dp550
S'RuntimeEnabled'
p551
S'ServiceWorker'
p552
sS'Global'
p553
S'Worker&ServiceWorker'
p554
sS'Exposed'
p555
S'ServiceWorker'
p556
ssg19
(lp557
sg21
I00
sg22
S'/media/code_dev/code_prj/blink_db/blink_core/lib/chromium_org/third_party/WebKit/Source/modules/serviceworkers/ServiceWorkerGlobalScope.idl'
p558
ssS'NetworkInformation'
p559
(dp560
g6
g7
sg8
I00
sg9
S'modules/netinfo/NetworkInformation.h'
p561
sg11
S'EventTarget'
p562
sg12
(lp563
sg14
(lp564
sg16
Nsg17
(dp565
S'ActiveDOMObject'
p566
S''
sS'RuntimeEnabled'
p567
S'NetworkInformation'
p568
sS'WillBeGarbageCollected'
p569
S''
sS'Exposed'
p570
S'Window&Worker'
p571
ssg19
(lp572
sg21
I00
sg22
S'/media/code_dev/code_prj/blink_db/blink_core/lib/chromium_org/third_party/WebKit/Source/modules/netinfo/NetworkInformation.idl'
p573
ssS'IDBCursorWithValue'
p574
(dp575
g6
g7
sg8
I00
sg9
S'modules/indexeddb/IDBCursorWithValue.h'
p576
sg11
S'IDBCursor'
p577
sg12
(lp578
sg14
(lp579
sg16
Nsg17
(dp580
sg19
(lp581
sg21
I00
sg22
S'/media/code_dev/code_prj/blink_db/blink_core/lib/chromium_org/third_party/WebKit/Source/modules/indexeddb/IDBCursorWithValue.idl'
p582
ssS'WebKitGamepad'
p583
(dp584
g6
g7
sg8
I00
sg9
S'modules/gamepad/WebKitGamepad.h'
p585
sg11
Nsg12
(lp586
sg14
(lp587
sg16
Nsg17
(dp588
S'GarbageCollected'
p589
S''
ssg19
(lp590
sg21
I00
sg22
S'/media/code_dev/code_prj/blink_db/blink_core/lib/chromium_org/third_party/WebKit/Source/modules/gamepad/WebKitGamepad.idl'
p591
ssS'IDBRequest'
p592
(dp593
g6
g7
sg8
I00
sg9
S'modules/indexeddb/IDBRequest.h'
p594
sg11
S'EventTarget'
p595
sg12
(lp596
sg14
(lp597
sg16
Nsg17
(dp598
S'ActiveDOMObject'
p599
S''
sS'GarbageCollected'
p600
S''
ssg19
(lp601
sg21
I00
sg22
S'/media/code_dev/code_prj/blink_db/blink_core/lib/chromium_org/third_party/WebKit/Source/modules/indexeddb/IDBRequest.idl'
p602
ssS'SpeechSynthesisUtterance'
p603
(dp604
g6
g7
sg8
I00
sg9
S'modules/speech/SpeechSynthesisUtterance.h'
p605
sg11
S'EventTarget'
p606
sg12
(lp607
sg14
(lp608
sg16
Nsg17
(dp609
S'RuntimeEnabled'
p610
S'SpeechSynthesis'
p611
sS'GarbageCollected'
p612
S''
sS'Constructor(optional DOMString text'
p613
S'null)'
p614
sS'ConstructorCallWith'
p615
S'ExecutionContext'
p616
ssg19
(lp617
sg21
I00
sg22
S'/media/code_dev/code_prj/blink_db/blink_core/lib/chromium_org/third_party/WebKit/Source/modules/speech/SpeechSynthesisUtterance.idl'
p618
ssS'EntryCallback'
p619
(dp620
g6
g7
sg8
I00
sg9
S'modules/filesystem/EntryCallback.h'
p621
sg11
Nsg12
(lp622
sg14
(lp623
sg16
Nsg17
(dp624
sg19
(lp625
sg21
I01
sg22
S'/media/code_dev/code_prj/blink_db/blink_core/lib/chromium_org/third_party/WebKit/Source/modules/filesystem/EntryCallback.idl'
p626
ssS'IDBFactory'
p627
(dp628
g6
g7
sg8
I00
sg9
S'modules/indexeddb/IDBFactory.h'
p629
sg11
Nsg12
(lp630
sg14
(lp631
sg16
Nsg17
(dp632
S'GarbageCollected'
p633
S''
ssg19
(lp634
sg21
I00
sg22
S'/media/code_dev/code_prj/blink_db/blink_core/lib/chromium_org/third_party/WebKit/Source/modules/indexeddb/IDBFactory.idl'
p635
ssS'MediaStreamTrackEvent'
p636
(dp637
g6
g7
sg8
I00
sg9
S'modules/mediastream/MediaStreamTrackEvent.h'
p638
sg11
S'Event'
p639
sg12
(lp640
sg14
(lp641
sg16
Nsg17
(dp642
S'NoInterfaceObject'
p643
S''
ssg19
(lp644
sg21
I00
sg22
S'/media/code_dev/code_prj/blink_db/blink_core/lib/chromium_org/third_party/WebKit/Source/modules/mediastream/MediaStreamTrackEvent.idl'
p645
ssS'RTCIceCandidateEvent'
p646
(dp647
g6
g7
sg8
I00
sg9
S'modules/mediastream/RTCIceCandidateEvent.h'
p648
sg11
S'Event'
p649
sg12
(lp650
sg14
(lp651
sg16
Nsg17
(dp652
S'NoInterfaceObject'
p653
S''
ssg19
(lp654
sg21
I00
sg22
S'/media/code_dev/code_prj/blink_db/blink_core/lib/chromium_org/third_party/WebKit/Source/modules/mediastream/RTCIceCandidateEvent.idl'
p655
ssS'SQLTransactionCallback'
p656
(dp657
g6
g7
sg8
I00
sg9
S'modules/webdatabase/SQLTransactionCallback.h'
p658
sg11
Nsg12
(lp659
sg14
(lp660
sg16
Nsg17
(dp661
sg19
(lp662
sg21
I01
sg22
S'/media/code_dev/code_prj/blink_db/blink_core/lib/chromium_org/third_party/WebKit/Source/modules/webdatabase/SQLTransactionCallback.idl'
p663
ssS'IDBCursor'
p664
(dp665
g6
g7
sg8
I00
sg9
S'modules/indexeddb/IDBCursor.h'
p666
sg11
Nsg12
(lp667
sg14
(lp668
sg16
Nsg17
(dp669
S'GarbageCollected'
p670
S''
ssg19
(lp671
sg21
I00
sg22
S'/media/code_dev/code_prj/blink_db/blink_core/lib/chromium_org/third_party/WebKit/Source/modules/indexeddb/IDBCursor.idl'
p672
ssS'Key'
p673
(dp674
g6
g7
sg8
I00
sg9
S'modules/crypto/Key.h'
p675
sg11
Nsg12
(lp676
sg14
(lp677
sg16
Nsg17
(dp678
S'GarbageCollected'
p679
S''
sS'NoInterfaceObject'
p680
S''
ssg19
(lp681
sg21
I00
sg22
S'/media/code_dev/code_prj/blink_db/blink_core/lib/chromium_org/third_party/WebKit/Source/modules/crypto/Key.idl'
p682
ssS'FetchEvent'
p683
(dp684
g6
g7
sg8
I00
sg9
S'modules/serviceworkers/FetchEvent.h'
p685
sg11
S'Event'
p686
sg12
(lp687
sg14
(lp688
sg16
Nsg17
(dp689
S'RuntimeEnabled'
p690
S'ServiceWorker'
p691
sS'Exposed'
p692
S'ServiceWorker'
p693
ssg19
(lp694
sg21
I00
sg22
S'/media/code_dev/code_prj/blink_db/blink_core/lib/chromium_org/third_party/WebKit/Source/modules/serviceworkers/FetchEvent.idl'
p695
ssS'FileCallback'
p696
(dp697
g6
g7
sg8
I00
sg9
S'modules/filesystem/FileCallback.h'
p698
sg11
Nsg12
(lp699
sg14
(lp700
sg16
Nsg17
(dp701
sg19
(lp702
sg21
I01
sg22
S'/media/code_dev/code_prj/blink_db/blink_core/lib/chromium_org/third_party/WebKit/Source/modules/filesystem/FileCallback.idl'
p703
ssS'ChannelMergerNode'
p704
(dp705
g6
g7
sg8
I00
sg9
S'modules/webaudio/ChannelMergerNode.h'
p706
sg11
S'AudioNode'
p707
sg12
(lp708
sg14
(lp709
sg16
Nsg17
(dp710
S'Conditional'
p711
S'WEB_AUDIO'
p712
ssg19
(lp713
sg21
I00
sg22
S'/media/code_dev/code_prj/blink_db/blink_core/lib/chromium_org/third_party/WebKit/Source/modules/webaudio/ChannelMergerNode.idl'
p714
ssS'WebSocket'
p715
(dp716
g6
g7
sg8
I00
sg9
S'modules/websockets/WebSocket.h'
p717
sg11
S'EventTarget'
p718
sg12
(lp719
sg14
(lp720
sg16
Nsg17
(dp721
S'Exposed'
p722
S'Window&Worker'
p723
sS'DOMString protocol)'
p724
S''
sS'WillBeGarbageCollected'
p725
S''
sS'Constructor(DOMString url'
p726
S''
sS'Constructor(DOMString url)'
p727
S''
sS'RaisesException'
p728
S'Constructor'
p729
sS'ConstructorCallWith'
p730
S'ExecutionContext'
p731
sS'ActiveDOMObject'
p732
S''
sS'sequence<DOMString> protocols)'
p733
S''
ssg19
(lp734
sg21
I00
sg22
S'/media/code_dev/code_prj/blink_db/blink_core/lib/chromium_org/third_party/WebKit/Source/modules/websockets/WebSocket.idl'
p735
ssS'EntriesCallback'
p736
(dp737
g6
g7
sg8
I00
sg9
S'modules/filesystem/EntriesCallback.h'
p738
sg11
Nsg12
(lp739
sg14
(lp740
sg16
Nsg17
(dp741
sg19
(lp742
sg21
I01
sg22
S'/media/code_dev/code_prj/blink_db/blink_core/lib/chromium_org/third_party/WebKit/Source/modules/filesystem/EntriesCallback.idl'
p743
ssS'IDBTransaction'
p744
(dp745
g6
g7
sg8
I00
sg9
S'modules/indexeddb/IDBTransaction.h'
p746
sg11
S'EventTarget'
p747
sg12
(lp748
sg14
(lp749
sg16
Nsg17
(dp750
S'ActiveDOMObject'
p751
S''
sS'GarbageCollected'
p752
S''
ssg19
(lp753
sg21
I00
sg22
S'/media/code_dev/code_prj/blink_db/blink_core/lib/chromium_org/third_party/WebKit/Source/modules/indexeddb/IDBTransaction.idl'
p754
ssS'GainNode'
p755
(dp756
g6
g7
sg8
I00
sg9
S'modules/webaudio/GainNode.h'
p757
sg11
S'AudioNode'
p758
sg12
(lp759
sg14
(lp760
sg16
Nsg17
(dp761
S'Conditional'
p762
S'WEB_AUDIO'
p763
ssg19
(lp764
sg21
I00
sg22
S'/media/code_dev/code_prj/blink_db/blink_core/lib/chromium_org/third_party/WebKit/Source/modules/webaudio/GainNode.idl'
p765
ssS'Crypto'
p766
(dp767
g6
g7
sg8
I00
sg9
S'modules/crypto/Crypto.h'
p768
sg11
Nsg12
(lp769
sg14
(lp770
sg16
Nsg17
(dp771
S'GarbageCollected'
p772
S''
sS'NoInterfaceObject'
p773
S''
ssg19
(lp774
sg21
I00
sg22
S'/media/code_dev/code_prj/blink_db/blink_core/lib/chromium_org/third_party/WebKit/Source/modules/crypto/Crypto.idl'
p775
ssS'ChannelSplitterNode'
p776
(dp777
g6
g7
sg8
I00
sg9
S'modules/webaudio/ChannelSplitterNode.h'
p778
sg11
S'AudioNode'
p779
sg12
(lp780
sg14
(lp781
sg16
Nsg17
(dp782
S'Conditional'
p783
S'WEB_AUDIO'
p784
ssg19
(lp785
sg21
I00
sg22
S'/media/code_dev/code_prj/blink_db/blink_core/lib/chromium_org/third_party/WebKit/Source/modules/webaudio/ChannelSplitterNode.idl'
p786
ssS'NavigatorUserMediaSuccessCallback'
p787
(dp788
g6
g7
sg8
I00
sg9
S'modules/mediastream/NavigatorUserMediaSuccessCallback.h'
p789
sg11
Nsg12
(lp790
sg14
(lp791
sg16
Nsg17
(dp792
sg19
(lp793
sg21
I01
sg22
S'/media/code_dev/code_prj/blink_db/blink_core/lib/chromium_org/third_party/WebKit/Source/modules/mediastream/NavigatorUserMediaSuccessCallback.idl'
p794
ssS'DatabaseSync'
p795
(dp796
g6
g7
sg8
I00
sg9
S'modules/webdatabase/DatabaseSync.h'
p797
sg11
Nsg12
(lp798
sg14
(lp799
sg16
Nsg17
(dp800
S'WillBeGarbageCollected'
p801
S''
sS'NoInterfaceObject'
p802
S''
ssg19
(lp803
sg21
I00
sg22
S'/media/code_dev/code_prj/blink_db/blink_core/lib/chromium_org/third_party/WebKit/Source/modules/webdatabase/DatabaseSync.idl'
p804
ssS'QbInfo'
p805
(dp806
g6
g7
sg8
I00
sg9
S'modules/qb/QbInfo.h'
p807
sg11
Nsg12
(lp808
sg14
(lp809
sg16
Nsg17
(dp810
S'NoInterfaceObject'
p811
S''
ssg19
(lp812
sg21
I00
sg22
S'/media/code_dev/code_prj/blink_db/blink_core/lib/chromium_org/third_party/WebKit/Source/modules/qb/QbInfo.idl'
p813
ssS'RTCDTMFSender'
p814
(dp815
g6
g7
sg8
I00
sg9
S'modules/mediastream/RTCDTMFSender.h'
p816
sg11
S'EventTarget'
p817
sg12
(lp818
sg14
(lp819
sg16
Nsg17
(dp820
S'ActiveDOMObject'
p821
S''
sS'WillBeGarbageCollected'
p822
S''
sS'NoInterfaceObject'
p823
S''
ssg19
(lp824
sg21
I00
sg22
S'/media/code_dev/code_prj/blink_db/blink_core/lib/chromium_org/third_party/WebKit/Source/modules/mediastream/RTCDTMFSender.idl'
p825
ssS'MediaStream'
p826
(dp827
g6
g7
sg8
I00
sg9
S'modules/mediastream/MediaStream.h'
p828
sg11
S'EventTarget'
p829
sg12
(lp830
sg14
(lp831
sg16
Nsg17
(dp832
S'Constructor(MediaStreamTrack[] tracks)'
p833
S''
sS'WillBeGarbageCollected'
p834
S''
sS'NoInterfaceObject'
p835
S''
sS'ConstructorCallWith'
p836
S'ExecutionContext'
p837
sS'Constructor'
p838
S''
sS'Constructor(MediaStream stream)'
p839
S''
ssg19
(lp840
sg21
I00
sg22
S'/media/code_dev/code_prj/blink_db/blink_core/lib/chromium_org/third_party/WebKit/Source/modules/mediastream/MediaStream.idl'
p841
ssS'GamepadList'
p842
(dp843
g6
g7
sg8
I00
sg9
S'modules/gamepad/GamepadList.h'
p844
sg11
Nsg12
(lp845
sg14
(lp846
sg16
Nsg17
(dp847
S'GarbageCollected'
p848
S''
sS'NoInterfaceObject'
p849
S''
ssg19
(lp850
sg21
I00
sg22
S'/media/code_dev/code_prj/blink_db/blink_core/lib/chromium_org/third_party/WebKit/Source/modules/gamepad/GamepadList.idl'
p851
ssS'Gamepad'
p852
(dp853
g6
g7
sg8
I00
sg9
S'modules/gamepad/Gamepad.h'
p854
sg11
Nsg12
(lp855
sg14
(lp856
sg16
Nsg17
(dp857
S'GarbageCollected'
p858
S''
ssg19
(lp859
sg21
I00
sg22
S'/media/code_dev/code_prj/blink_db/blink_core/lib/chromium_org/third_party/WebKit/Source/modules/gamepad/Gamepad.idl'
p860
ssS'MIDIConnectionEvent'
p861
(dp862
g6
g7
sg8
I00
sg9
S'modules/webmidi/MIDIConnectionEvent.h'
p863
sg11
S'Event'
p864
sg12
(lp865
sg14
(lp866
sg16
Nsg17
(dp867
S'RuntimeEnabled'
p868
S'WebMIDI'
p869
sS'EventConstructor'
p870
S''
ssg19
(lp871
sg21
I00
sg22
S'/media/code_dev/code_prj/blink_db/blink_core/lib/chromium_org/third_party/WebKit/Source/modules/webmidi/MIDIConnectionEvent.idl'
p872
ssS'SpeechRecognitionResultList'
p873
(dp874
g6
g7
sg8
I00
sg9
S'modules/speech/SpeechRecognitionResultList.h'
p875
sg11
Nsg12
(lp876
sg14
(lp877
sg16
Nsg17
(dp878
S'GarbageCollected'
p879
S''
sS'NoInterfaceObject'
p880
S''
ssg19
(lp881
sg21
I00
sg22
S'/media/code_dev/code_prj/blink_db/blink_core/lib/chromium_org/third_party/WebKit/Source/modules/speech/SpeechRecognitionResultList.idl'
p882
ssS'PushManager'
p883
(dp884
g6
g7
sg8
I00
sg9
S'modules/push_messaging/PushManager.h'
p885
sg11
Nsg12
(lp886
sg14
(lp887
sg16
Nsg17
(dp888
S'RuntimeEnabled'
p889
S'PushMessaging'
p890
sS'GarbageCollected'
p891
S''
sS'NoInterfaceObject'
p892
S''
ssg19
(lp893
sg21
I00
sg22
S'/media/code_dev/code_prj/blink_db/blink_core/lib/chromium_org/third_party/WebKit/Source/modules/push_messaging/PushManager.idl'
p894
ssS'ServiceWorkerClients'
p895
(dp896
g6
g7
sg8
I00
sg9
S'modules/serviceworkers/ServiceWorkerClients.h'
p897
sg11
Nsg12
(lp898
sg14
(lp899
sg16
Nsg17
(dp900
S'RuntimeEnabled'
p901
S'ServiceWorker'
p902
sS'Exposed'
p903
S'ServiceWorker'
p904
ssg19
(lp905
sg21
I00
sg22
S'/media/code_dev/code_prj/blink_db/blink_core/lib/chromium_org/third_party/WebKit/Source/modules/serviceworkers/ServiceWorkerClients.idl'
p906
ssS'DirectoryReaderSync'
p907
(dp908
g6
g7
sg8
I00
sg9
S'modules/filesystem/DirectoryReaderSync.h'
p909
sg11
Nsg12
(lp910
sg14
(lp911
sg16
Nsg17
(dp912
S'GarbageCollected'
p913
S''
sS'NoInterfaceObject'
p914
S''
ssg19
(lp915
sg21
I00
sg22
S'/media/code_dev/code_prj/blink_db/blink_core/lib/chromium_org/third_party/WebKit/Source/modules/filesystem/DirectoryReaderSync.idl'
p916
ssS'ConvolverNode'
p917
(dp918
g6
g7
sg8
I00
sg9
S'modules/webaudio/ConvolverNode.h'
p919
sg11
S'AudioNode'
p920
sg12
(lp921
sg14
(lp922
sg16
Nsg17
(dp923
S'Conditional'
p924
S'WEB_AUDIO'
p925
ssg19
(lp926
sg21
I00
sg22
S'/media/code_dev/code_prj/blink_db/blink_core/lib/chromium_org/third_party/WebKit/Source/modules/webaudio/ConvolverNode.idl'
p927
ssS'MIDIMessageEvent'
p928
(dp929
g6
g7
sg8
I00
sg9
S'modules/webmidi/MIDIMessageEvent.h'
p930
sg11
S'Event'
p931
sg12
(lp932
sg14
(lp933
sg16
Nsg17
(dp934
S'RuntimeEnabled'
p935
S'WebMIDI'
p936
sS'EventConstructor'
p937
S''
ssg19
(lp938
sg21
I00
sg22
S'/media/code_dev/code_prj/blink_db/blink_core/lib/chromium_org/third_party/WebKit/Source/modules/webmidi/MIDIMessageEvent.idl'
p939
ssS'HeaderMapForEachCallback'
p940
(dp941
g6
g7
sg8
I00
sg9
S'modules/serviceworkers/HeaderMapForEachCallback.h'
p942
sg11
Nsg12
(lp943
sg14
(lp944
sg16
Nsg17
(dp945
sg19
(lp946
sg21
I01
sg22
S'/media/code_dev/code_prj/blink_db/blink_core/lib/chromium_org/third_party/WebKit/Source/modules/serviceworkers/HeaderMapForEachCallback.idl'
p947
ssS'IDBDatabase'
p948
(dp949
g6
g7
sg8
I00
sg9
S'modules/indexeddb/IDBDatabase.h'
p950
sg11
S'EventTarget'
p951
sg12
(lp952
sg14
(lp953
sg16
Nsg17
(dp954
S'ActiveDOMObject'
p955
S''
sS'GarbageCollected'
p956
S''
ssg19
(lp957
sg21
I00
sg22
S'/media/code_dev/code_prj/blink_db/blink_core/lib/chromium_org/third_party/WebKit/Source/modules/indexeddb/IDBDatabase.idl'
p958
ssS'SpeechSynthesisEvent'
p959
(dp960
g6
g7
sg8
I00
sg9
S'modules/speech/SpeechSynthesisEvent.h'
p961
sg11
S'Event'
p962
sg12
(lp963
sg14
(lp964
sg16
Nsg17
(dp965
S'RuntimeEnabled'
p966
S'SpeechSynthesis'
p967
ssg19
(lp968
sg21
I00
sg22
S'/media/code_dev/code_prj/blink_db/blink_core/lib/chromium_org/third_party/WebKit/Source/modules/speech/SpeechSynthesisEvent.idl'
p969
ssS'WebKitGamepadList'
p970
(dp971
g6
g7
sg8
I00
sg9
S'modules/gamepad/WebKitGamepadList.h'
p972
sg11
Nsg12
(lp973
sg14
(lp974
sg16
Nsg17
(dp975
S'GarbageCollected'
p976
S''
sS'NoInterfaceObject'
p977
S''
ssg19
(lp978
sg21
I00
sg22
S'/media/code_dev/code_prj/blink_db/blink_core/lib/chromium_org/third_party/WebKit/Source/modules/gamepad/WebKitGamepadList.idl'
p979
ssS'MIDIErrorCallback'
p980
(dp981
g6
g7
sg8
I00
sg9
S'modules/webmidi/MIDIErrorCallback.h'
p982
sg11
Nsg12
(lp983
sg14
(lp984
sg16
Nsg17
(dp985
sg19
(lp986
sg21
I01
sg22
S'/media/code_dev/code_prj/blink_db/blink_core/lib/chromium_org/third_party/WebKit/Source/modules/webmidi/MIDIErrorCallback.idl'
p987
ssS'SQLResultSetRowList'
p988
(dp989
g6
g7
sg8
I00
sg9
S'modules/webdatabase/SQLResultSetRowList.h'
p990
sg11
Nsg12
(lp991
sg14
(lp992
sg16
Nsg17
(dp993
S'WillBeGarbageCollected'
p994
S''
sS'NoInterfaceObject'
p995
S''
ssg19
(lp996
sg21
I00
sg22
S'/media/code_dev/code_prj/blink_db/blink_core/lib/chromium_org/third_party/WebKit/Source/modules/webdatabase/SQLResultSetRowList.idl'
p997
ssS'NavigatorUserMediaErrorCallback'
p998
(dp999
g6
g7
sg8
I00
sg9
S'modules/mediastream/NavigatorUserMediaErrorCallback.h'
p1000
sg11
Nsg12
(lp1001
sg14
(lp1002
sg16
Nsg17
(dp1003
sg19
(lp1004
sg21
I01
sg22
S'/media/code_dev/code_prj/blink_db/blink_core/lib/chromium_org/third_party/WebKit/Source/modules/mediastream/NavigatorUserMediaErrorCallback.idl'
p1005
ssS'Notification'
p1006
(dp1007
g6
g7
sg8
I00
sg9
S'modules/notifications/Notification.h'
p1008
sg11
S'EventTarget'
p1009
sg12
(lp1010
sg14
(lp1011
sg16
Nsg17
(dp1012
S'Constructor(DOMString title'
p1013
S''
sS'RuntimeEnabled'
p1014
S'Notifications'
p1015
sS'GarbageCollected'
p1016
S''
sS'ConstructorCallWith'
p1017
S'ExecutionContext'
p1018
sS'ActiveDOMObject'
p1019
S''
sS'[Default'
p1020
S'Undefined] optional Dictionary options)'
p1021
ssg19
(lp1022
sg21
I00
sg22
S'/media/code_dev/code_prj/blink_db/blink_core/lib/chromium_org/third_party/WebKit/Source/modules/notifications/Notification.idl'
p1023
ssS'PushEvent'
p1024
(dp1025
g6
g7
sg8
I00
sg9
S'modules/push_messaging/PushEvent.h'
p1026
sg11
S'Event'
p1027
sg12
(lp1028
sg14
(lp1029
sg16
Nsg17
(dp1030
S'RuntimeEnabled'
p1031
S'PushMessaging'
p1032
sS'EventConstructor'
p1033
S''
ssg19
(lp1034
sg21
I00
sg22
S'/media/code_dev/code_prj/blink_db/blink_core/lib/chromium_org/third_party/WebKit/Source/modules/push_messaging/PushEvent.idl'
p1035
ssS'ServiceWorker'
p1036
(dp1037
g6
g7
sg8
I00
sg9
S'modules/serviceworkers/ServiceWorker.h'
p1038
sg11
S'EventTarget'
p1039
sg12
(lp1040
sg14
(lp1041
S'AbstractWorker'
p1042
asg16
Nsg17
(dp1043
S'ActiveDOMObject'
p1044
S''
sS'RuntimeEnabled'
p1045
S'ServiceWorker'
p1046
ssg19
(lp1047
sg21
I00
sg22
S'/media/code_dev/code_prj/blink_db/blink_core/lib/chromium_org/third_party/WebKit/Source/modules/serviceworkers/ServiceWorker.idl'
p1048
ssS'DOMFileSystemSync'
p1049
(dp1050
g6
g7
sg8
I00
sg9
S'modules/filesystem/DOMFileSystemSync.h'
p1051
sg11
Nsg12
(lp1052
sg14
(lp1053
sg16
Nsg17
(dp1054
S'GarbageCollected'
p1055
S''
sS'NoInterfaceObject'
p1056
S''
ssg19
(lp1057
sg21
I00
sg22
S'/media/code_dev/code_prj/blink_db/blink_core/lib/chromium_org/third_party/WebKit/Source/modules/filesystem/DOMFileSystemSync.idl'
p1058
ssS'AesKeyAlgorithm'
p1059
(dp1060
g6
g7
sg8
I00
sg9
S'modules/crypto/AesKeyAlgorithm.h'
p1061
sg11
S'KeyAlgorithm'
p1062
sg12
(lp1063
sg14
(lp1064
sg16
Nsg17
(dp1065
S'NoInterfaceObject'
p1066
S''
ssg19
(lp1067
sg21
I00
sg22
S'/media/code_dev/code_prj/blink_db/blink_core/lib/chromium_org/third_party/WebKit/Source/modules/crypto/AesKeyAlgorithm.idl'
p1068
ssS'FileEntry'
p1069
(dp1070
g6
g7
sg8
I00
sg9
S'modules/filesystem/FileEntry.h'
p1071
sg11
S'Entry'
p1072
sg12
(lp1073
sg14
(lp1074
sg16
Nsg17
(dp1075
S'NoInterfaceObject'
p1076
S''
ssg19
(lp1077
sg21
I00
sg22
S'/media/code_dev/code_prj/blink_db/blink_core/lib/chromium_org/third_party/WebKit/Source/modules/filesystem/FileEntry.idl'
p1078
ssS'StorageQuotaCallback'
p1079
(dp1080
g6
g7
sg8
I00
sg9
S'modules/quota/StorageQuotaCallback.h'
p1081
sg11
Nsg12
(lp1082
sg14
(lp1083
sg16
Nsg17
(dp1084
sg19
(lp1085
sg21
I01
sg22
S'/media/code_dev/code_prj/blink_db/blink_core/lib/chromium_org/third_party/WebKit/Source/modules/quota/StorageQuotaCallback.idl'
p1086
ssS'MediaDeviceInfo'
p1087
(dp1088
g6
g7
sg8
I00
sg9
S'modules/mediastream/MediaDeviceInfo.h'
p1089
sg11
Nsg12
(lp1090
sg14
(lp1091
sg16
Nsg17
(dp1092
S'WillBeGarbageCollected'
p1093
S''
sS'NoInterfaceObject'
p1094
S''
ssg19
(lp1095
sg21
I00
sg22
S'/media/code_dev/code_prj/blink_db/blink_core/lib/chromium_org/third_party/WebKit/Source/modules/mediastream/MediaDeviceInfo.idl'
p1096
ssS'RTCDTMFToneChangeEvent'
p1097
(dp1098
g6
g7
sg8
I00
sg9
S'modules/mediastream/RTCDTMFToneChangeEvent.h'
p1099
sg11
S'Event'
p1100
sg12
(lp1101
sg14
(lp1102
sg16
Nsg17
(dp1103
S'EventConstructor'
p1104
S''
sS'NoInterfaceObject'
p1105
S''
ssg19
(lp1106
sg21
I00
sg22
S'/media/code_dev/code_prj/blink_db/blink_core/lib/chromium_org/third_party/WebKit/Source/modules/mediastream/RTCDTMFToneChangeEvent.idl'
p1107
ssS'IDBKeyRange'
p1108
(dp1109
g6
g7
sg8
I00
sg9
S'modules/indexeddb/IDBKeyRange.h'
p1110
sg11
Nsg12
(lp1111
sg14
(lp1112
sg16
Nsg17
(dp1113
S'GarbageCollected'
p1114
S''
ssg19
(lp1115
sg21
I00
sg22
S'/media/code_dev/code_prj/blink_db/blink_core/lib/chromium_org/third_party/WebKit/Source/modules/indexeddb/IDBKeyRange.idl'
p1116
ssS'DeviceOrientationEvent'
p1117
(dp1118
g6
g7
sg8
I00
sg9
S'modules/device_orientation/DeviceOrientationEvent.h'
p1119
sg11
S'Event'
p1120
sg12
(lp1121
sg14
(lp1122
sg16
Nsg17
(dp1123
sg19
(lp1124
sg21
I00
sg22
S'/media/code_dev/code_prj/blink_db/blink_core/lib/chromium_org/third_party/WebKit/Source/modules/device_orientation/DeviceOrientationEvent.idl'
p1125
ssS'MediaDeviceInfoCallback'
p1126
(dp1127
g6
g7
sg8
I00
sg9
S'modules/mediastream/MediaDeviceInfoCallback.h'
p1128
sg11
Nsg12
(lp1129
sg14
(lp1130
sg16
Nsg17
(dp1131
sg19
(lp1132
sg21
I01
sg22
S'/media/code_dev/code_prj/blink_db/blink_core/lib/chromium_org/third_party/WebKit/Source/modules/mediastream/MediaDeviceInfoCallback.idl'
p1133
ssS'VideoPlaybackQuality'
p1134
(dp1135
g6
g7
sg8
I00
sg9
S'modules/mediasource/VideoPlaybackQuality.h'
p1136
sg11
Nsg12
(lp1137
sg14
(lp1138
sg16
Nsg17
(dp1139
S'RuntimeEnabled'
p1140
S'MediaSourceExperimental'
p1141
sS'WillBeGarbageCollected'
p1142
S''
ssg19
(lp1143
sg21
I00
sg22
S'/media/code_dev/code_prj/blink_db/blink_core/lib/chromium_org/third_party/WebKit/Source/modules/mediasource/VideoPlaybackQuality.idl'
p1144
ssS'MediaKeyMessageEvent'
p1145
(dp1146
g6
g7
sg8
I00
sg9
S'modules/encryptedmedia/MediaKeyMessageEvent.h'
p1147
sg11
S'Event'
p1148
sg12
(lp1149
sg14
(lp1150
sg16
Nsg17
(dp1151
S'RuntimeEnabled'
p1152
S'EncryptedMedia'
p1153
sS'EventConstructor'
p1154
S''
ssg19
(lp1155
sg21
I00
sg22
S'/media/code_dev/code_prj/blink_db/blink_core/lib/chromium_org/third_party/WebKit/Source/modules/encryptedmedia/MediaKeyMessageEvent.idl'
p1156
ssS'RTCStatsCallback'
p1157
(dp1158
g6
g7
sg8
I00
sg9
S'modules/mediastream/RTCStatsCallback.h'
p1159
sg11
Nsg12
(lp1160
sg14
(lp1161
sg16
Nsg17
(dp1162
sg19
(lp1163
sg21
I01
sg22
S'/media/code_dev/code_prj/blink_db/blink_core/lib/chromium_org/third_party/WebKit/Source/modules/mediastream/RTCStatsCallback.idl'
p1164
ssS'PositionErrorCallback'
p1165
(dp1166
g6
g7
sg8
I00
sg9
S'modules/geolocation/PositionErrorCallback.h'
p1167
sg11
Nsg12
(lp1168
sg14
(lp1169
sg16
Nsg17
(dp1170
sg19
(lp1171
sg21
I01
sg22
S'/media/code_dev/code_prj/blink_db/blink_core/lib/chromium_org/third_party/WebKit/Source/modules/geolocation/PositionErrorCallback.idl'
p1172
ssS'SpeechRecognitionEvent'
p1173
(dp1174
g6
g7
sg8
I00
sg9
S'modules/speech/SpeechRecognitionEvent.h'
p1175
sg11
S'Event'
p1176
sg12
(lp1177
sg14
(lp1178
sg16
Nsg17
(dp1179
S'EventConstructor'
p1180
S''
sS'NoInterfaceObject'
p1181
S''
ssg19
(lp1182
sg21
I00
sg22
S'/media/code_dev/code_prj/blink_db/blink_core/lib/chromium_org/third_party/WebKit/Source/modules/speech/SpeechRecognitionEvent.idl'
p1183
ssS'RsaKeyAlgorithm'
p1184
(dp1185
g6
g7
sg8
I00
sg9
S'modules/crypto/RsaKeyAlgorithm.h'
p1186
sg11
S'KeyAlgorithm'
p1187
sg12
(lp1188
sg14
(lp1189
sg16
Nsg17
(dp1190
S'NoInterfaceObject'
p1191
S''
ssg19
(lp1192
sg21
I00
sg22
S'/media/code_dev/code_prj/blink_db/blink_core/lib/chromium_org/third_party/WebKit/Source/modules/crypto/RsaKeyAlgorithm.idl'
p1193
ssS'OscillatorNode'
p1194
(dp1195
g6
g7
sg8
I00
sg9
S'modules/webaudio/OscillatorNode.h'
p1196
sg11
S'AudioSourceNode'
p1197
sg12
(lp1198
sg14
(lp1199
sg16
Nsg17
(dp1200
S'Conditional'
p1201
S'WEB_AUDIO'
p1202
ssg19
(lp1203
sg21
I00
sg22
S'/media/code_dev/code_prj/blink_db/blink_core/lib/chromium_org/third_party/WebKit/Source/modules/webaudio/OscillatorNode.idl'
p1204
ssS'NotificationPermissionCallback'
p1205
(dp1206
g6
g7
sg8
I00
sg9
S'modules/notifications/NotificationPermissionCallback.h'
p1207
sg11
Nsg12
(lp1208
sg14
(lp1209
sg16
Nsg17
(dp1210
sg19
(lp1211
sg21
I01
sg22
S'/media/code_dev/code_prj/blink_db/blink_core/lib/chromium_org/third_party/WebKit/Source/modules/notifications/NotificationPermissionCallback.idl'
p1212
ssS'DeprecatedStorageInfo'
p1213
(dp1214
g6
g7
sg8
I00
sg9
S'modules/quota/DeprecatedStorageInfo.h'
p1215
sg11
Nsg12
(lp1216
sg14
(lp1217
sg16
Nsg17
(dp1218
S'GarbageCollected'
p1219
S''
sS'NoInterfaceObject'
p1220
S''
ssg19
(lp1221
sg21
I00
sg22
S'/media/code_dev/code_prj/blink_db/blink_core/lib/chromium_org/third_party/WebKit/Source/modules/quota/DeprecatedStorageInfo.idl'
p1222
ssS'Response'
p1223
(dp1224
g6
g7
sg8
I00
sg9
S'modules/serviceworkers/Response.h'
p1225
sg11
Nsg12
(lp1226
sg14
(lp1227
sg16
Nsg17
(dp1228
S'optional Dictionary responseInitDict)'
p1229
S''
sS'Constructor(Blob body'
p1230
S''
sS'Exposed'
p1231
S'ServiceWorker'
p1232
sS'RuntimeEnabled'
p1233
S'ServiceWorker'
p1234
ssg19
(lp1235
sg21
I00
sg22
S'/media/code_dev/code_prj/blink_db/blink_core/lib/chromium_org/third_party/WebKit/Source/modules/serviceworkers/Response.idl'
p1236
ssS'PositionCallback'
p1237
(dp1238
g6
g7
sg8
I00
sg9
S'modules/geolocation/PositionCallback.h'
p1239
sg11
Nsg12
(lp1240
sg14
(lp1241
sg16
Nsg17
(dp1242
sg19
(lp1243
sg21
I01
sg22
S'/media/code_dev/code_prj/blink_db/blink_core/lib/chromium_org/third_party/WebKit/Source/modules/geolocation/PositionCallback.idl'
p1244
ssS'Database'
p1245
(dp1246
g6
g7
sg8
I00
sg9
S'modules/webdatabase/Database.h'
p1247
sg11
Nsg12
(lp1248
sg14
(lp1249
sg16
Nsg17
(dp1250
S'WillBeGarbageCollected'
p1251
S''
sS'NoInterfaceObject'
p1252
S''
ssg19
(lp1253
sg21
I00
sg22
S'/media/code_dev/code_prj/blink_db/blink_core/lib/chromium_org/third_party/WebKit/Source/modules/webdatabase/Database.idl'
p1254
ssS'MediaStreamEvent'
p1255
(dp1256
g6
g7
sg8
I00
sg9
S'modules/mediastream/MediaStreamEvent.h'
p1257
sg11
S'Event'
p1258
sg12
(lp1259
sg14
(lp1260
sg16
Nsg17
(dp1261
S'EventConstructor'
p1262
S''
ssg19
(lp1263
sg21
I00
sg22
S'/media/code_dev/code_prj/blink_db/blink_core/lib/chromium_org/third_party/WebKit/Source/modules/mediastream/MediaStreamEvent.idl'
p1264
ssS'SQLResultSet'
p1265
(dp1266
g6
g7
sg8
I00
sg9
S'modules/webdatabase/SQLResultSet.h'
p1267
sg11
Nsg12
(lp1268
sg14
(lp1269
sg16
Nsg17
(dp1270
S'WillBeGarbageCollected'
p1271
S''
sS'NoInterfaceObject'
p1272
S''
ssg19
(lp1273
sg21
I00
sg22
S'/media/code_dev/code_prj/blink_db/blink_core/lib/chromium_org/third_party/WebKit/Source/modules/webdatabase/SQLResultSet.idl'
p1274
ssS'Client'
p1275
(dp1276
g6
g7
sg8
I00
sg9
S'modules/serviceworkers/Client.h'
p1277
sg11
Nsg12
(lp1278
sg14
(lp1279
sg16
Nsg17
(dp1280
S'RuntimeEnabled'
p1281
S'ServiceWorker'
p1282
sS'Exposed'
p1283
S'ServiceWorker'
p1284
ssg19
(lp1285
sg21
I00
sg22
S'/media/code_dev/code_prj/blink_db/blink_core/lib/chromium_org/third_party/WebKit/Source/modules/serviceworkers/Client.idl'
p1286
ssS'PannerNode'
p1287
(dp1288
g6
g7
sg8
I00
sg9
S'modules/webaudio/PannerNode.h'
p1289
sg11
S'AudioNode'
p1290
sg12
(lp1291
sg14
(lp1292
sg16
Nsg17
(dp1293
S'Conditional'
p1294
S'WEB_AUDIO'
p1295
sS'NoInterfaceObject'
p1296
S''
ssg19
(lp1297
sg21
I00
sg22
S'/media/code_dev/code_prj/blink_db/blink_core/lib/chromium_org/third_party/WebKit/Source/modules/webaudio/PannerNode.idl'
p1298
ssS'NavigatorUserMediaError'
p1299
(dp1300
g6
g7
sg8
I00
sg9
S'modules/mediastream/NavigatorUserMediaError.h'
p1301
sg11
Nsg12
(lp1302
sg14
(lp1303
sg16
Nsg17
(dp1304
S'WillBeGarbageCollected'
p1305
S''
sS'NoInterfaceObject'
p1306
S''
ssg19
(lp1307
sg21
I00
sg22
S'/media/code_dev/code_prj/blink_db/blink_core/lib/chromium_org/third_party/WebKit/Source/modules/mediastream/NavigatorUserMediaError.idl'
p1308
ssS'RTCErrorCallback'
p1309
(dp1310
g6
g7
sg8
I00
sg9
S'modules/mediastream/RTCErrorCallback.h'
p1311
sg11
Nsg12
(lp1312
sg14
(lp1313
sg16
Nsg17
(dp1314
sg19
(lp1315
sg21
I01
sg22
S'/media/code_dev/code_prj/blink_db/blink_core/lib/chromium_org/third_party/WebKit/Source/modules/mediastream/RTCErrorCallback.idl'
p1316
ssS'SpeechRecognitionError'
p1317
(dp1318
g6
g7
sg8
I00
sg9
S'modules/speech/SpeechRecognitionError.h'
p1319
sg11
S'Event'
p1320
sg12
(lp1321
sg14
(lp1322
sg16
Nsg17
(dp1323
S'EventConstructor'
p1324
S''
sS'NoInterfaceObject'
p1325
S''
ssg19
(lp1326
sg21
I00
sg22
S'/media/code_dev/code_prj/blink_db/blink_core/lib/chromium_org/third_party/WebKit/Source/modules/speech/SpeechRecognitionError.idl'
p1327
ssS'MediaStreamTrack'
p1328
(dp1329
g6
g7
sg8
I00
sg9
S'modules/mediastream/MediaStreamTrack.h'
p1330
sg11
S'EventTarget'
p1331
sg12
(lp1332
sg14
(lp1333
sg16
Nsg17
(dp1334
S'ActiveDOMObject'
p1335
S''
sS'WillBeGarbageCollected'
p1336
S''
ssg19
(lp1337
sg21
I00
sg22
S'/media/code_dev/code_prj/blink_db/blink_core/lib/chromium_org/third_party/WebKit/Source/modules/mediastream/MediaStreamTrack.idl'
p1338
ssS'PeriodicWave'
p1339
(dp1340
g6
g7
sg8
I00
sg9
S'modules/webaudio/PeriodicWave.h'
p1341
sg11
Nsg12
(lp1342
sg14
(lp1343
sg16
Nsg17
(dp1344
S'WillBeGarbageCollected'
p1345
S''
sS'Conditional'
p1346
S'WEB_AUDIO'
p1347
ssg19
(lp1348
sg21
I00
sg22
S'/media/code_dev/code_prj/blink_db/blink_core/lib/chromium_org/third_party/WebKit/Source/modules/webaudio/PeriodicWave.idl'
p1349
ssS'AudioBufferSourceNode'
p1350
(dp1351
g6
g7
sg8
I00
sg9
S'modules/webaudio/AudioBufferSourceNode.h'
p1352
sg11
S'AudioSourceNode'
p1353
sg12
(lp1354
sg14
(lp1355
sg16
Nsg17
(dp1356
S'Conditional'
p1357
S'WEB_AUDIO'
p1358
sS'TypeChecking'
p1359
S'Interface|Nullable'
p1360
ssg19
(lp1361
sg21
I00
sg22
S'/media/code_dev/code_prj/blink_db/blink_core/lib/chromium_org/third_party/WebKit/Source/modules/webaudio/AudioBufferSourceNode.idl'
p1362
ssS'IDBVersionChangeEvent'
p1363
(dp1364
g6
g7
sg8
I00
sg9
S'modules/indexeddb/IDBVersionChangeEvent.h'
p1365
sg11
S'Event'
p1366
sg12
(lp1367
sg14
(lp1368
sg16
Nsg17
(dp1369
S'EventConstructor'
p1370
S''
ssg19
(lp1371
sg21
I00
sg22
S'/media/code_dev/code_prj/blink_db/blink_core/lib/chromium_org/third_party/WebKit/Source/modules/indexeddb/IDBVersionChangeEvent.idl'
p1372
ssS'WorkerPerformance'
p1373
(dp1374
g6
g7
sg8
I00
sg9
S'modules/performance/WorkerPerformance.h'
p1375
sg11
Nsg12
(lp1376
sg14
(lp1377
sg16
Nsg17
(dp1378
S'GarbageCollected'
p1379
S''
sS'NoInterfaceObject'
p1380
S''
ssg19
(lp1381
sg21
I00
sg22
S'/media/code_dev/code_prj/blink_db/blink_core/lib/chromium_org/third_party/WebKit/Source/modules/performance/WorkerPerformance.idl'
p1382
ssS'WaveShaperNode'
p1383
(dp1384
g6
g7
sg8
I00
sg9
S'modules/webaudio/WaveShaperNode.h'
p1385
sg11
S'AudioNode'
p1386
sg12
(lp1387
sg14
(lp1388
sg16
Nsg17
(dp1389
S'Conditional'
p1390
S'WEB_AUDIO'
p1391
ssg19
(lp1392
sg21
I00
sg22
S'/media/code_dev/code_prj/blink_db/blink_core/lib/chromium_org/third_party/WebKit/Source/modules/webaudio/WaveShaperNode.idl'
p1393
ssS'ImageBitmapFactories'
p1394
(dp1395
g6
g7
sg8
I01
sg9
S'modules/imagebitmap/ImageBitmapFactories.h'
p1396
sg11
Nsg12
(lp1397
S'Window'
p1398
aS'WorkerGlobalScope'
p1399
asg14
(lp1400
sg16
Nsg17
(dp1401
S'RuntimeEnabled'
p1402
S'ExperimentalCanvasFeatures'
p1403
sS'LegacyTreatAsPartialInterface'
p1404
S''
sS'TypeChecking'
p1405
S'Interface|Nullable'
p1406
sS'NoInterfaceObject'
p1407
S''
ssg19
(lp1408
sg21
I00
sg22
S'/media/code_dev/code_prj/blink_db/blink_core/lib/chromium_org/third_party/WebKit/Source/modules/imagebitmap/ImageBitmapFactories.idl'
p1409
ssS'DirectoryEntry'
p1410
(dp1411
g6
g7
sg8
I00
sg9
S'modules/filesystem/DirectoryEntry.h'
p1412
sg11
S'Entry'
p1413
sg12
(lp1414
sg14
(lp1415
sg16
Nsg17
(dp1416
S'NoInterfaceObject'
p1417
S''
ssg19
(lp1418
sg21
I00
sg22
S'/media/code_dev/code_prj/blink_db/blink_core/lib/chromium_org/third_party/WebKit/Source/modules/filesystem/DirectoryEntry.idl'
p1419
ssS'SpeechGrammarList'
p1420
(dp1421
g6
g7
sg8
I00
sg9
S'modules/speech/SpeechGrammarList.h'
p1422
sg11
Nsg12
(lp1423
sg14
(lp1424
sg16
Nsg17
(dp1425
S'GarbageCollected'
p1426
S''
sS'NoInterfaceObject'
p1427
S''
sS'Constructor'
p1428
S''
ssg19
(lp1429
sg21
I00
sg22
S'/media/code_dev/code_prj/blink_db/blink_core/lib/chromium_org/third_party/WebKit/Source/modules/speech/SpeechGrammarList.idl'
p1430
ssS'DynamicsCompressorNode'
p1431
(dp1432
g6
g7
sg8
I00
sg9
S'modules/webaudio/DynamicsCompressorNode.h'
p1433
sg11
S'AudioNode'
p1434
sg12
(lp1435
sg14
(lp1436
sg16
Nsg17
(dp1437
S'Conditional'
p1438
S'WEB_AUDIO'
p1439
ssg19
(lp1440
sg21
I00
sg22
S'/media/code_dev/code_prj/blink_db/blink_core/lib/chromium_org/third_party/WebKit/Source/modules/webaudio/DynamicsCompressorNode.idl'
p1441
ssS'FileWriter'
p1442
(dp1443
g6
g7
sg8
I00
sg9
S'modules/filesystem/FileWriter.h'
p1444
sg11
S'EventTarget'
p1445
sg12
(lp1446
sg14
(lp1447
sg16
Nsg17
(dp1448
S'ActiveDOMObject'
p1449
S''
sS'GarbageCollected'
p1450
S''
sS'NoInterfaceObject'
p1451
S''
ssg19
(lp1452
sg21
I00
sg22
S'/media/code_dev/code_prj/blink_db/blink_core/lib/chromium_org/third_party/WebKit/Source/modules/filesystem/FileWriter.idl'
p1453
ssS'ScriptProcessorNode'
p1454
(dp1455
g6
g7
sg8
I00
sg9
S'modules/webaudio/ScriptProcessorNode.h'
p1456
sg11
S'AudioNode'
p1457
sg12
(lp1458
sg14
(lp1459
sg16
Nsg17
(dp1460
S'Conditional'
p1461
S'WEB_AUDIO'
p1462
ssg19
(lp1463
sg21
I00
sg22
S'/media/code_dev/code_prj/blink_db/blink_core/lib/chromium_org/third_party/WebKit/Source/modules/webaudio/ScriptProcessorNode.idl'
p1464
ssS'RTCIceCandidate'
p1465
(dp1466
g6
g7
sg8
I00
sg9
S'modules/mediastream/RTCIceCandidate.h'
p1467
sg11
Nsg12
(lp1468
sg14
(lp1469
sg16
Nsg17
(dp1470
S'RaisesException'
p1471
S'Constructor'
p1472
sS'WillBeGarbageCollected'
p1473
S''
sS'Constructor(Dictionary dictionary)'
p1474
S''
ssg19
(lp1475
sg21
I00
sg22
S'/media/code_dev/code_prj/blink_db/blink_core/lib/chromium_org/third_party/WebKit/Source/modules/mediastream/RTCIceCandidate.idl'
p1476
ssS'SpeechRecognitionResult'
p1477
(dp1478
g6
g7
sg8
I00
sg9
S'modules/speech/SpeechRecognitionResult.h'
p1479
sg11
Nsg12
(lp1480
sg14
(lp1481
sg16
Nsg17
(dp1482
S'GarbageCollected'
p1483
S''
sS'NoInterfaceObject'
p1484
S''
ssg19
(lp1485
sg21
I00
sg22
S'/media/code_dev/code_prj/blink_db/blink_core/lib/chromium_org/third_party/WebKit/Source/modules/speech/SpeechRecognitionResult.idl'
p1486
ssS'StorageInfo'
p1487
(dp1488
g6
g7
sg8
I00
sg9
S'modules/quota/StorageInfo.h'
p1489
sg11
Nsg12
(lp1490
sg14
(lp1491
sg16
Nsg17
(dp1492
S'RuntimeEnabled'
p1493
S'QuotaPromise'
p1494
sS'GarbageCollected'
p1495
S''
sS'NoInterfaceObject'
p1496
S''
ssg19
(lp1497
sg21
I00
sg22
S'/media/code_dev/code_prj/blink_db/blink_core/lib/chromium_org/third_party/WebKit/Source/modules/quota/StorageInfo.idl'
p1498
ssS'IDBIndex'
p1499
(dp1500
g6
g7
sg8
I00
sg9
S'modules/indexeddb/IDBIndex.h'
p1501
sg11
Nsg12
(lp1502
sg14
(lp1503
sg16
Nsg17
(dp1504
S'GarbageCollected'
p1505
S''
ssg19
(lp1506
sg21
I00
sg22
S'/media/code_dev/code_prj/blink_db/blink_core/lib/chromium_org/third_party/WebKit/Source/modules/indexeddb/IDBIndex.idl'
p1507
ssS'DirectoryReader'
p1508
(dp1509
g6
g7
sg8
I00
sg9
S'modules/filesystem/DirectoryReader.h'
p1510
sg11
Nsg12
(lp1511
sg14
(lp1512
sg16
Nsg17
(dp1513
S'GarbageCollected'
p1514
S''
sS'NoInterfaceObject'
p1515
S''
ssg19
(lp1516
sg21
I00
sg22
S'/media/code_dev/code_prj/blink_db/blink_core/lib/chromium_org/third_party/WebKit/Source/modules/filesystem/DirectoryReader.idl'
p1517
ssS'MIDISuccessCallback'
p1518
(dp1519
g6
g7
sg8
I00
sg9
S'modules/webmidi/MIDISuccessCallback.h'
p1520
sg11
Nsg12
(lp1521
sg14
(lp1522
sg16
Nsg17
(dp1523
sg19
(lp1524
sg21
I01
sg22
S'/media/code_dev/code_prj/blink_db/blink_core/lib/chromium_org/third_party/WebKit/Source/modules/webmidi/MIDISuccessCallback.idl'
p1525
ssS'AudioListener'
p1526
(dp1527
g6
g7
sg8
I00
sg9
S'modules/webaudio/AudioListener.h'
p1528
sg11
Nsg12
(lp1529
sg14
(lp1530
sg16
Nsg17
(dp1531
S'WillBeGarbageCollected'
p1532
S''
sS'Conditional'
p1533
S'WEB_AUDIO'
p1534
ssg19
(lp1535
sg21
I00
sg22
S'/media/code_dev/code_prj/blink_db/blink_core/lib/chromium_org/third_party/WebKit/Source/modules/webaudio/AudioListener.idl'
p1536
ssS'DirectoryEntrySync'
p1537
(dp1538
g6
g7
sg8
I00
sg9
S'modules/filesystem/DirectoryEntrySync.h'
p1539
sg11
S'EntrySync'
p1540
sg12
(lp1541
sg14
(lp1542
sg16
Nsg17
(dp1543
S'NoInterfaceObject'
p1544
S''
ssg19
(lp1545
sg21
I00
sg22
S'/media/code_dev/code_prj/blink_db/blink_core/lib/chromium_org/third_party/WebKit/Source/modules/filesystem/DirectoryEntrySync.idl'
p1546
ssS'AudioBufferCallback'
p1547
(dp1548
g6
g7
sg8
I00
sg9
S'modules/webaudio/AudioBufferCallback.h'
p1549
sg11
Nsg12
(lp1550
sg14
(lp1551
sg16
Nsg17
(dp1552
S'Conditional'
p1553
S'WEB_AUDIO'
p1554
ssg19
(lp1555
sg21
I01
sg22
S'/media/code_dev/code_prj/blink_db/blink_core/lib/chromium_org/third_party/WebKit/Source/modules/webaudio/AudioBufferCallback.idl'
p1556
ssS'PushRegistration'
p1557
(dp1558
g6
g7
sg8
I00
sg9
S'modules/push_messaging/PushRegistration.h'
p1559
sg11
Nsg12
(lp1560
sg14
(lp1561
sg16
Nsg17
(dp1562
S'GarbageCollected'
p1563
S''
sS'NoInterfaceObject'
p1564
S''
ssg19
(lp1565
sg21
I00
sg22
S'/media/code_dev/code_prj/blink_db/blink_core/lib/chromium_org/third_party/WebKit/Source/modules/push_messaging/PushRegistration.idl'
p1566
ssS'RTCDataChannel'
p1567
(dp1568
g6
g7
sg8
I00
sg9
S'modules/mediastream/RTCDataChannel.h'
p1569
sg11
S'EventTarget'
p1570
sg12
(lp1571
sg14
(lp1572
sg16
Nsg17
(dp1573
S'WillBeGarbageCollected'
p1574
S''
sS'NoInterfaceObject'
p1575
S''
ssg19
(lp1576
sg21
I00
sg22
S'/media/code_dev/code_prj/blink_db/blink_core/lib/chromium_org/third_party/WebKit/Source/modules/mediastream/RTCDataChannel.idl'
p1577
ssS'MediaStreamAudioDestinationNode'
p1578
(dp1579
g6
g7
sg8
I00
sg9
S'modules/webaudio/MediaStreamAudioDestinationNode.h'
p1580
sg11
S'AudioNode'
p1581
sg12
(lp1582
sg14
(lp1583
sg16
Nsg17
(dp1584
S'Conditional'
p1585
S'WEB_AUDIO'
p1586
ssg19
(lp1587
sg21
I00
sg22
S'/media/code_dev/code_prj/blink_db/blink_core/lib/chromium_org/third_party/WebKit/Source/modules/webaudio/MediaStreamAudioDestinationNode.idl'
p1588
ssS'TextDecoder'
p1589
(dp1590
g6
g7
sg8
I00
sg9
S'modules/encoding/TextDecoder.h'
p1591
sg11
Nsg12
(lp1592
sg14
(lp1593
sg16
Nsg17
(dp1594
S'MeasureAs'
p1595
S'TextDecoderConstructor'
p1596
sS'Exposed'
p1597
S'Window&Worker'
p1598
sS'RuntimeEnabled'
p1599
S'EncodingAPI'
p1600
sS'GarbageCollected'
p1601
S''
sS'RaisesException'
p1602
S'Constructor'
p1603
sS'optional Dictionary options)'
p1604
S''
sS'Constructor(optional DOMString label'
p1605
S'null'
p1606
ssg19
(lp1607
sg21
I00
sg22
S'/media/code_dev/code_prj/blink_db/blink_core/lib/chromium_org/third_party/WebKit/Source/modules/encoding/TextDecoder.idl'
p1608
ssS'ServiceWorkerContainer'
p1609
(dp1610
g6
g7
sg8
I00
sg9
S'modules/serviceworkers/ServiceWorkerContainer.h'
p1611
sg11
Nsg12
(lp1612
sg14
(lp1613
sg16
Nsg17
(dp1614
S'RuntimeEnabled'
p1615
S'ServiceWorker'
p1616
ssg19
(lp1617
sg21
I00
sg22
S'/media/code_dev/code_prj/blink_db/blink_core/lib/chromium_org/third_party/WebKit/Source/modules/serviceworkers/ServiceWorkerContainer.idl'
p1618
ssS'OfflineAudioContext'
p1619
(dp1620
g6
g7
sg8
I00
sg9
S'modules/webaudio/OfflineAudioContext.h'
p1621
sg11
S'AudioContext'
p1622
sg12
(lp1623
sg14
(lp1624
sg16
Nsg17
(dp1625
S'Constructor(unsigned long numberOfChannels'
p1626
S''
sS'Conditional'
p1627
S'WEB_AUDIO'
p1628
sS'float sampleRate)'
p1629
S''
sS'unsigned long numberOfFrames'
p1630
S''
sS'WillBeGarbageCollected'
p1631
S''
sS'NoInterfaceObject'
p1632
S''
sS'RaisesException'
p1633
S'Constructor'
p1634
sS'ConstructorCallWith'
p1635
S'ExecutionContext'
p1636
ssg19
(lp1637
sg21
I00
sg22
S'/media/code_dev/code_prj/blink_db/blink_core/lib/chromium_org/third_party/WebKit/Source/modules/webaudio/OfflineAudioContext.idl'
p1638
ssS'StorageQuota'
p1639
(dp1640
g6
g7
sg8
I00
sg9
S'modules/quota/StorageQuota.h'
p1641
sg11
Nsg12
(lp1642
sg14
(lp1643
sg16
Nsg17
(dp1644
S'RuntimeEnabled'
p1645
S'QuotaPromise'
p1646
sS'GarbageCollected'
p1647
S''
sS'NoInterfaceObject'
p1648
S''
ssg19
(lp1649
sg21
I00
sg22
S'/media/code_dev/code_prj/blink_db/blink_core/lib/chromium_org/third_party/WebKit/Source/modules/quota/StorageQuota.idl'
p1650
ssS'SpeechSynthesis'
p1651
(dp1652
g6
g7
sg8
I00
sg9
S'modules/speech/SpeechSynthesis.h'
p1653
sg11
S'EventTarget'
p1654
sg12
(lp1655
sg14
(lp1656
sg16
Nsg17
(dp1657
S'RuntimeEnabled'
p1658
S'SpeechSynthesis'
p1659
sS'GarbageCollected'
p1660
S''
sS'NoInterfaceObject'
p1661
S''
ssg19
(lp1662
sg21
I00
sg22
S'/media/code_dev/code_prj/blink_db/blink_core/lib/chromium_org/third_party/WebKit/Source/modules/speech/SpeechSynthesis.idl'
p1663
ssS'MediaStreamTrackSourcesCallback'
p1664
(dp1665
g6
g7
sg8
I00
sg9
S'modules/mediastream/MediaStreamTrackSourcesCallback.h'
p1666
sg11
Nsg12
(lp1667
sg14
(lp1668
sg16
Nsg17
(dp1669
sg19
(lp1670
sg21
I01
sg22
S'/media/code_dev/code_prj/blink_db/blink_core/lib/chromium_org/third_party/WebKit/Source/modules/mediastream/MediaStreamTrackSourcesCallback.idl'
p1671
ssS'SQLTransactionSyncCallback'
p1672
(dp1673
g6
g7
sg8
I00
sg9
S'modules/webdatabase/SQLTransactionSyncCallback.h'
p1674
sg11
Nsg12
(lp1675
sg14
(lp1676
sg16
Nsg17
(dp1677
sg19
(lp1678
sg21
I01
sg22
S'/media/code_dev/code_prj/blink_db/blink_core/lib/chromium_org/third_party/WebKit/Source/modules/webdatabase/SQLTransactionSyncCallback.idl'
p1679
ssS'FileWriterSync'
p1680
(dp1681
g6
g7
sg8
I00
sg9
S'modules/filesystem/FileWriterSync.h'
p1682
sg11
Nsg12
(lp1683
sg14
(lp1684
sg16
Nsg17
(dp1685
S'GarbageCollected'
p1686
S''
sS'NoInterfaceObject'
p1687
S''
ssg19
(lp1688
sg21
I00
sg22
S'/media/code_dev/code_prj/blink_db/blink_core/lib/chromium_org/third_party/WebKit/Source/modules/filesystem/FileWriterSync.idl'
p1689
ssS'MediaSource'
p1690
(dp1691
g6
g7
sg8
I00
sg9
S'modules/mediasource/MediaSource.h'
p1692
sg11
S'EventTarget'
p1693
sg12
(lp1694
sg14
(lp1695
sg16
Nsg17
(dp1696
S'ActiveDOMObject'
p1697
S''
sS'RuntimeEnabled'
p1698
S'MediaSource'
p1699
sS'ConstructorCallWith'
p1700
S'ExecutionContext'
p1701
sS'TypeChecking'
p1702
S'Interface|Nullable|Unrestricted'
p1703
sS'Constructor'
p1704
S''
ssg19
(lp1705
sg21
I00
sg22
S'/media/code_dev/code_prj/blink_db/blink_core/lib/chromium_org/third_party/WebKit/Source/modules/mediasource/MediaSource.idl'
p1706
ssS'AudioParam'
p1707
(dp1708
g6
g7
sg8
I00
sg9
S'modules/webaudio/AudioParam.h'
p1709
sg11
Nsg12
(lp1710
sg14
(lp1711
sg16
Nsg17
(dp1712
S'WillBeGarbageCollected'
p1713
S''
sS'Conditional'
p1714
S'WEB_AUDIO'
p1715
ssg19
(lp1716
sg21
I00
sg22
S'/media/code_dev/code_prj/blink_db/blink_core/lib/chromium_org/third_party/WebKit/Source/modules/webaudio/AudioParam.idl'
p1717
ssS'OfflineAudioCompletionEvent'
p1718
(dp1719
g6
g7
sg8
I00
sg9
S'modules/webaudio/OfflineAudioCompletionEvent.h'
p1720
sg11
S'Event'
p1721
sg12
(lp1722
sg14
(lp1723
sg16
Nsg17
(dp1724
S'Conditional'
p1725
S'WEB_AUDIO'
p1726
ssg19
(lp1727
sg21
I00
sg22
S'/media/code_dev/code_prj/blink_db/blink_core/lib/chromium_org/third_party/WebKit/Source/modules/webaudio/OfflineAudioCompletionEvent.idl'
p1728
ssS'MIDIInput'
p1729
(dp1730
g6
g7
sg8
I00
sg9
S'modules/webmidi/MIDIInput.h'
p1731
sg11
S'MIDIPort'
p1732
sg12
(lp1733
sg14
(lp1734
sg16
Nsg17
(dp1735
S'SetWrapperReferenceTo(MIDIAccess midiAccess)'
p1736
S''
sS'NoInterfaceObject'
p1737
S''
ssg19
(lp1738
sg21
I00
sg22
S'/media/code_dev/code_prj/blink_db/blink_core/lib/chromium_org/third_party/WebKit/Source/modules/webmidi/MIDIInput.idl'
p1739
ssS'Request'
p1740
(dp1741
g6
g7
sg8
I00
sg9
S'modules/serviceworkers/Request.h'
p1742
sg11
Nsg12
(lp1743
sg14
(lp1744
sg16
Nsg17
(dp1745
S'RuntimeEnabled'
p1746
S'ServiceWorker'
p1747
sS'Constructor(optional Dictionary requestInitDict)'
p1748
S''
sS'Exposed'
p1749
S'ServiceWorker'
p1750
ssg19
(lp1751
sg21
I00
sg22
S'/media/code_dev/code_prj/blink_db/blink_core/lib/chromium_org/third_party/WebKit/Source/modules/serviceworkers/Request.idl'
p1752
ssS'AudioSourceNode'
p1753
(dp1754
g6
g7
sg8
I00
sg9
S'modules/webaudio/AudioSourceNode.h'
p1755
sg11
S'AudioNode'
p1756
sg12
(lp1757
sg14
(lp1758
sg16
Nsg17
(dp1759
S'Conditional'
p1760
S'WEB_AUDIO'
p1761
sS'NoInterfaceObject'
p1762
S''
ssg19
(lp1763
sg21
I00
sg22
S'/media/code_dev/code_prj/blink_db/blink_core/lib/chromium_org/third_party/WebKit/Source/modules/webaudio/AudioSourceNode.idl'
p1764
ssS'SQLTransaction'
p1765
(dp1766
g6
g7
sg8
I00
sg9
S'modules/webdatabase/SQLTransaction.h'
p1767
sg11
Nsg12
(lp1768
sg14
(lp1769
sg16
Nsg17
(dp1770
S'WillBeGarbageCollected'
p1771
S''
sS'NoInterfaceObject'
p1772
S''
ssg19
(lp1773
sg21
I00
sg22
S'/media/code_dev/code_prj/blink_db/blink_core/lib/chromium_org/third_party/WebKit/Source/modules/webdatabase/SQLTransaction.idl'
p1774
ssS'SpeechGrammar'
p1775
(dp1776
g6
g7
sg8
I00
sg9
S'modules/speech/SpeechGrammar.h'
p1777
sg11
Nsg12
(lp1778
sg14
(lp1779
sg16
Nsg17
(dp1780
S'GarbageCollected'
p1781
S''
sS'NoInterfaceObject'
p1782
S''
sS'Constructor'
p1783
S''
ssg19
(lp1784
sg21
I00
sg22
S'/media/code_dev/code_prj/blink_db/blink_core/lib/chromium_org/third_party/WebKit/Source/modules/speech/SpeechGrammar.idl'
p1785
ssS'Entry'
p1786
(dp1787
g6
g7
sg8
I00
sg9
S'modules/filesystem/Entry.h'
p1788
sg11
Nsg12
(lp1789
sg14
(lp1790
sg16
Nsg17
(dp1791
S'GarbageCollected'
p1792
S''
sS'NoInterfaceObject'
p1793
S''
sS'Custom'
p1794
S'Wrap'
p1795
ssg19
(lp1796
sg21
I00
sg22
S'/media/code_dev/code_prj/blink_db/blink_core/lib/chromium_org/third_party/WebKit/Source/modules/filesystem/Entry.idl'
p1797
ssS'AudioContext'
p1798
(dp1799
g6
g7
sg8
I00
sg9
S'modules/webaudio/AudioContext.h'
p1800
sg11
S'EventTarget'
p1801
sg12
(lp1802
sg14
(lp1803
sg16
Nsg17
(dp1804
S'Conditional'
p1805
S'WEB_AUDIO'
p1806
sS'WillBeGarbageCollected'
p1807
S''
sS'NoInterfaceObject'
p1808
S''
sS'RaisesException'
p1809
S'Constructor'
p1810
sS'ConstructorCallWith'
p1811
S'Document'
p1812
sS'ActiveDOMObject'
p1813
S''
sS'Constructor'
p1814
S''
ssg19
(lp1815
sg21
I00
sg22
S'/media/code_dev/code_prj/blink_db/blink_core/lib/chromium_org/third_party/WebKit/Source/modules/webaudio/AudioContext.idl'
p1816
ssS'SpeechRecognition'
p1817
(dp1818
g6
g7
sg8
I00
sg9
S'modules/speech/SpeechRecognition.h'
p1819
sg11
S'EventTarget'
p1820
sg12
(lp1821
sg14
(lp1822
sg16
Nsg17
(dp1823
S'ActiveDOMObject'
p1824
S''
sS'GarbageCollected'
p1825
S''
sS'ConstructorCallWith'
p1826
S'ExecutionContext'
p1827
sS'NoInterfaceObject'
p1828
S''
sS'Constructor'
p1829
S''
ssg19
(lp1830
sg21
I00
sg22
S'/media/code_dev/code_prj/blink_db/blink_core/lib/chromium_org/third_party/WebKit/Source/modules/speech/SpeechRecognition.idl'
p1831
ssS'IDBObjectStore'
p1832
(dp1833
g6
g7
sg8
I00
sg9
S'modules/indexeddb/IDBObjectStore.h'
p1834
sg11
Nsg12
(lp1835
sg14
(lp1836
sg16
Nsg17
(dp1837
S'GarbageCollected'
p1838
S''
ssg19
(lp1839
sg21
I00
sg22
S'/media/code_dev/code_prj/blink_db/blink_core/lib/chromium_org/third_party/WebKit/Source/modules/indexeddb/IDBObjectStore.idl'
p1840
ssS'Geolocation'
p1841
(dp1842
g6
g7
sg8
I00
sg9
S'modules/geolocation/Geolocation.h'
p1843
sg11
Nsg12
(lp1844
sg14
(lp1845
sg16
Nsg17
(dp1846
S'GarbageCollected'
p1847
S''
sS'NoInterfaceObject'
p1848
S''
ssg19
(lp1849
sg21
I00
sg22
S'/media/code_dev/code_prj/blink_db/blink_core/lib/chromium_org/third_party/WebKit/Source/modules/geolocation/Geolocation.idl'
p1850
ssS'BiquadFilterNode'
p1851
(dp1852
g6
g7
sg8
I00
sg9
S'modules/webaudio/BiquadFilterNode.h'
p1853
sg11
S'AudioNode'
p1854
sg12
(lp1855
sg14
(lp1856
sg16
Nsg17
(dp1857
S'Conditional'
p1858
S'WEB_AUDIO'
p1859
ssg19
(lp1860
sg21
I00
sg22
S'/media/code_dev/code_prj/blink_db/blink_core/lib/chromium_org/third_party/WebKit/Source/modules/webaudio/BiquadFilterNode.idl'
p1861
ssS'RTCDataChannelEvent'
p1862
(dp1863
g6
g7
sg8
I00
sg9
S'modules/mediastream/RTCDataChannelEvent.h'
p1864
sg11
S'Event'
p1865
sg12
(lp1866
sg14
(lp1867
sg16
Nsg17
(dp1868
S'NoInterfaceObject'
p1869
S''
ssg19
(lp1870
sg21
I00
sg22
S'/media/code_dev/code_prj/blink_db/blink_core/lib/chromium_org/third_party/WebKit/Source/modules/mediastream/RTCDataChannelEvent.idl'
p1871
ssS'RTCSessionDescription'
p1872
(dp1873
g6
g7
sg8
I00
sg9
S'modules/mediastream/RTCSessionDescription.h'
p1874
sg11
Nsg12
(lp1875
sg14
(lp1876
sg16
Nsg17
(dp1877
S'Constructor(optional Dictionary descriptionInitDict)'
p1878
S''
sS'WillBeGarbageCollected'
p1879
S''
sS'RaisesException'
p1880
S'Constructor'
p1881
ssg19
(lp1882
sg21
I00
sg22
S'/media/code_dev/code_prj/blink_db/blink_core/lib/chromium_org/third_party/WebKit/Source/modules/mediastream/RTCSessionDescription.idl'
p1883
ssS'CloseEvent'
p1884
(dp1885
g6
g7
sg8
I00
sg9
S'modules/websockets/CloseEvent.h'
p1886
sg11
S'Event'
p1887
sg12
(lp1888
sg14
(lp1889
sg16
Nsg17
(dp1890
S'EventConstructor'
p1891
S''
ssg19
(lp1892
sg21
I00
sg22
S'/media/code_dev/code_prj/blink_db/blink_core/lib/chromium_org/third_party/WebKit/Source/modules/websockets/CloseEvent.idl'
p1893
ssS'AudioProcessingEvent'
p1894
(dp1895
g6
g7
sg8
I00
sg9
S'modules/webaudio/AudioProcessingEvent.h'
p1896
sg11
S'Event'
p1897
sg12
(lp1898
sg14
(lp1899
sg16
Nsg17
(dp1900
S'Conditional'
p1901
S'WEB_AUDIO'
p1902
ssg19
(lp1903
sg21
I00
sg22
S'/media/code_dev/code_prj/blink_db/blink_core/lib/chromium_org/third_party/WebKit/Source/modules/webaudio/AudioProcessingEvent.idl'
p1904
ssS'SourceBufferList'
p1905
(dp1906
g6
g7
sg8
I00
sg9
S'modules/mediasource/SourceBufferList.h'
p1907
sg11
S'EventTarget'
p1908
sg12
(lp1909
sg14
(lp1910
sg16
Nsg17
(dp1911
S'RuntimeEnabled'
p1912
S'MediaSource'
p1913
sS'WillBeGarbageCollected'
p1914
S''
sS'NoInterfaceObject'
p1915
S''
ssg19
(lp1916
sg21
I00
sg22
S'/media/code_dev/code_prj/blink_db/blink_core/lib/chromium_org/third_party/WebKit/Source/modules/mediasource/SourceBufferList.idl'
p1917
ssS'RTCStatsResponse'
p1918
(dp1919
g6
g7
sg8
I00
sg9
S'modules/mediastream/RTCStatsResponse.h'
p1920
sg11
Nsg12
(lp1921
sg14
(lp1922
sg16
Nsg17
(dp1923
S'WillBeGarbageCollected'
p1924
S''
sS'NoInterfaceObject'
p1925
S''
ssg19
(lp1926
sg21
I00
sg22
S'/media/code_dev/code_prj/blink_db/blink_core/lib/chromium_org/third_party/WebKit/Source/modules/mediastream/RTCStatsResponse.idl'
p1927
ssS'MediaKeys'
p1928
(dp1929
g6
g7
sg8
I00
sg9
S'modules/encryptedmedia/MediaKeys.h'
p1930
sg11
Nsg12
(lp1931
sg14
(lp1932
sg16
Nsg17
(dp1933
S'Constructor(DOMString keySystem)'
p1934
S''
sS'RuntimeEnabled'
p1935
S'EncryptedMedia'
p1936
sS'GarbageCollected'
p1937
S''
sS'RaisesException'
p1938
S'Constructor'
p1939
sS'TypeChecking'
p1940
S'Interface|Nullable'
p1941
sS'ConstructorCallWith'
p1942
S'ExecutionContext'
p1943
ssg19
(lp1944
sg21
I00
sg22
S'/media/code_dev/code_prj/blink_db/blink_core/lib/chromium_org/third_party/WebKit/Source/modules/encryptedmedia/MediaKeys.idl'
p1945
ssS'AudioDestinationNode'
p1946
(dp1947
g6
g7
sg8
I00
sg9
S'modules/webaudio/AudioDestinationNode.h'
p1948
sg11
S'AudioNode'
p1949
sg12
(lp1950
sg14
(lp1951
sg16
Nsg17
(dp1952
S'Conditional'
p1953
S'WEB_AUDIO'
p1954
ssg19
(lp1955
sg21
I00
sg22
S'/media/code_dev/code_prj/blink_db/blink_core/lib/chromium_org/third_party/WebKit/Source/modules/webaudio/AudioDestinationNode.idl'
p1956
ssS'AudioNode'
p1957
(dp1958
g6
g7
sg8
I00
sg9
S'modules/webaudio/AudioNode.h'
p1959
sg11
S'EventTarget'
p1960
sg12
(lp1961
sg14
(lp1962
sg16
Nsg17
(dp1963
S'WillBeGarbageCollected'
p1964
S''
sS'Conditional'
p1965
S'WEB_AUDIO'
p1966
sS'Custom'
p1967
S'Wrap'
p1968
ssg19
(lp1969
sg21
I00
sg22
S'/media/code_dev/code_prj/blink_db/blink_core/lib/chromium_org/third_party/WebKit/Source/modules/webaudio/AudioNode.idl'
p1970
ssS'SpeechRecognitionAlternative'
p1971
(dp1972
g6
g7
sg8
I00
sg9
S'modules/speech/SpeechRecognitionAlternative.h'
p1973
sg11
Nsg12
(lp1974
sg14
(lp1975
sg16
Nsg17
(dp1976
S'GarbageCollected'
p1977
S''
sS'NoInterfaceObject'
p1978
S''
ssg19
(lp1979
sg21
I00
sg22
S'/media/code_dev/code_prj/blink_db/blink_core/lib/chromium_org/third_party/WebKit/Source/modules/speech/SpeechRecognitionAlternative.idl'
p1980
ssS'Geoposition'
p1981
(dp1982
g6
g7
sg8
I00
sg9
S'modules/geolocation/Geoposition.h'
p1983
sg11
Nsg12
(lp1984
sg14
(lp1985
sg16
Nsg17
(dp1986
S'GarbageCollected'
p1987
S''
sS'NoInterfaceObject'
p1988
S''
ssg19
(lp1989
sg21
I00
sg22
S'/media/code_dev/code_prj/blink_db/blink_core/lib/chromium_org/third_party/WebKit/Source/modules/geolocation/Geoposition.idl'
p1990
ssS'SourceBuffer'
p1991
(dp1992
g6
g7
sg8
I00
sg9
S'modules/mediasource/SourceBuffer.h'
p1993
sg11
S'EventTarget'
p1994
sg12
(lp1995
sg14
(lp1996
sg16
Nsg17
(dp1997
S'ActiveDOMObject'
p1998
S''
sS'RuntimeEnabled'
p1999
S'MediaSource'
p2000
sS'TypeChecking'
p2001
S'Interface|Nullable|Unrestricted'
p2002
sS'NoInterfaceObject'
p2003
S''
ssg19
(lp2004
sg21
I00
sg22
S'/media/code_dev/code_prj/blink_db/blink_core/lib/chromium_org/third_party/WebKit/Source/modules/mediasource/SourceBuffer.idl'
p2005
sssS'partial_interface_files'
p2006
(dp2007
S'InspectorFrontendHost'
p2008
(dp2009
S'include_paths'
p2010
(lp2011
S'modules/filesystem/InspectorFrontendHostFileSystem.h'
p2012
asS'full_paths'
p2013
(lp2014
S'/media/code_dev/code_prj/blink_db/blink_core/lib/chromium_org/third_party/WebKit/Source/modules/filesystem/InspectorFrontendHostFileSystem.idl'
p2015
assS'HTMLMediaElement'
p2016
(dp2017
g2010
(lp2018
S'modules/encryptedmedia/HTMLMediaElementEncryptedMedia.h'
p2019
asg2013
(lp2020
S'/media/code_dev/code_prj/blink_db/blink_core/lib/chromium_org/third_party/WebKit/Source/modules/encryptedmedia/HTMLMediaElementEncryptedMedia.idl'
p2021
assS'URL'
p2022
(dp2023
g2010
(lp2024
S'modules/mediasource/URLMediaSource.h'
p2025
aS'modules/mediastream/URLMediaStream.h'
p2026
asg2013
(lp2027
S'/media/code_dev/code_prj/blink_db/blink_core/lib/chromium_org/third_party/WebKit/Source/modules/mediasource/URLMediaSource.idl'
p2028
aS'/media/code_dev/code_prj/blink_db/blink_core/lib/chromium_org/third_party/WebKit/Source/modules/mediastream/URLMediaStream.idl'
p2029
assS'SharedWorker'
p2030
(dp2031
g2010
(lp2032
S'modules/performance/SharedWorkerPerformance.h'
p2033
asg2013
(lp2034
S'/media/code_dev/code_prj/blink_db/blink_core/lib/chromium_org/third_party/WebKit/Source/modules/performance/SharedWorkerPerformance.idl'
p2035
assS'WorkerGlobalScope'
p2036
(dp2037
g2010
(lp2038
S'modules/crypto/WorkerGlobalScopeCrypto.h'
p2039
aS'modules/filesystem/WorkerGlobalScopeFileSystem.h'
p2040
aS'modules/indexeddb/WorkerGlobalScopeIndexedDatabase.h'
p2041
aS'modules/performance/WorkerGlobalScopePerformance.h'
p2042
aS'modules/webdatabase/WorkerGlobalScopeWebDatabase.h'
p2043
asg2013
(lp2044
S'/media/code_dev/code_prj/blink_db/blink_core/lib/chromium_org/third_party/WebKit/Source/modules/crypto/WorkerGlobalScopeCrypto.idl'
p2045
aS'/media/code_dev/code_prj/blink_db/blink_core/lib/chromium_org/third_party/WebKit/Source/modules/filesystem/WorkerGlobalScopeFileSystem.idl'
p2046
aS'/media/code_dev/code_prj/blink_db/blink_core/lib/chromium_org/third_party/WebKit/Source/modules/indexeddb/WorkerGlobalScopeIndexedDatabase.idl'
p2047
aS'/media/code_dev/code_prj/blink_db/blink_core/lib/chromium_org/third_party/WebKit/Source/modules/performance/WorkerGlobalScopePerformance.idl'
p2048
aS'/media/code_dev/code_prj/blink_db/blink_core/lib/chromium_org/third_party/WebKit/Source/modules/webdatabase/WorkerGlobalScopeWebDatabase.idl'
p2049
assS'Window'
p2050
(dp2051
g2010
(lp2052
S'modules/crypto/DOMWindowCrypto.h'
p2053
aS'modules/device_light/DOMWindowDeviceLight.h'
p2054
aS'modules/device_orientation/DOMWindowDeviceMotion.h'
p2055
aS'modules/device_orientation/DOMWindowDeviceOrientation.h'
p2056
aS'modules/filesystem/DOMWindowFileSystem.h'
p2057
aS'modules/imagebitmap/ImageBitmapFactories.h'
p2058
aS'modules/indexeddb/DOMWindowIndexedDatabase.h'
p2059
aS'modules/mediastream/DOMWindowMediaStream.h'
p2060
aS'modules/quota/DOMWindowQuota.h'
p2061
aS'modules/speech/DOMWindowSpeech.h'
p2062
aS'modules/speech/DOMWindowSpeechSynthesis.h'
p2063
aS'modules/webaudio/DOMWindowWebAudio.h'
p2064
aS'modules/webdatabase/DOMWindowWebDatabase.h'
p2065
aS'../../../out/Release/gen/blink/modules/WindowModulesConstructors.h'
p2066
asg2013
(lp2067
S'/media/code_dev/code_prj/blink_db/blink_core/lib/chromium_org/third_party/WebKit/Source/modules/crypto/WindowCrypto.idl'
p2068
aS'/media/code_dev/code_prj/blink_db/blink_core/lib/chromium_org/third_party/WebKit/Source/modules/device_light/WindowDeviceLight.idl'
p2069
aS'/media/code_dev/code_prj/blink_db/blink_core/lib/chromium_org/third_party/WebKit/Source/modules/device_orientation/WindowDeviceMotion.idl'
p2070
aS'/media/code_dev/code_prj/blink_db/blink_core/lib/chromium_org/third_party/WebKit/Source/modules/device_orientation/WindowDeviceOrientation.idl'
p2071
aS'/media/code_dev/code_prj/blink_db/blink_core/lib/chromium_org/third_party/WebKit/Source/modules/filesystem/WindowFileSystem.idl'
p2072
aS'/media/code_dev/code_prj/blink_db/blink_core/lib/chromium_org/third_party/WebKit/Source/modules/imagebitmap/WindowImageBitmapFactories.idl'
p2073
aS'/media/code_dev/code_prj/blink_db/blink_core/lib/chromium_org/third_party/WebKit/Source/modules/indexeddb/WindowIndexedDatabase.idl'
p2074
aS'/media/code_dev/code_prj/blink_db/blink_core/lib/chromium_org/third_party/WebKit/Source/modules/mediastream/WindowMediaStream.idl'
p2075
aS'/media/code_dev/code_prj/blink_db/blink_core/lib/chromium_org/third_party/WebKit/Source/modules/quota/WindowQuota.idl'
p2076
aS'/media/code_dev/code_prj/blink_db/blink_core/lib/chromium_org/third_party/WebKit/Source/modules/speech/WindowSpeech.idl'
p2077
aS'/media/code_dev/code_prj/blink_db/blink_core/lib/chromium_org/third_party/WebKit/Source/modules/speech/WindowSpeechSynthesis.idl'
p2078
aS'/media/code_dev/code_prj/blink_db/blink_core/lib/chromium_org/third_party/WebKit/Source/modules/webaudio/WindowWebAudio.idl'
p2079
aS'/media/code_dev/code_prj/blink_db/blink_core/lib/chromium_org/third_party/WebKit/Source/modules/webdatabase/WindowWebDatabase.idl'
p2080
aS'/media/code_dev/code_prj/blink_db/blink_core/lib/chromium_org/out/Release/gen/blink/modules/WindowModulesConstructors.idl'
p2081
assS'ServiceWorkerGlobalScope'
p2082
(dp2083
g2010
(lp2084
S'modules/push_messaging/ServiceWorkerGlobalScopePush.h'
p2085
aS'../../../out/Release/gen/blink/modules/ServiceWorkerGlobalScopeCoreConstructors.h'
p2086
aS'../../../out/Release/gen/blink/modules/ServiceWorkerGlobalScopeModulesConstructors.h'
p2087
asg2013
(lp2088
S'/media/code_dev/code_prj/blink_db/blink_core/lib/chromium_org/third_party/WebKit/Source/modules/push_messaging/ServiceWorkerGlobalScopePush.idl'
p2089
aS'/media/code_dev/code_prj/blink_db/blink_core/lib/chromium_org/out/Release/gen/blink/modules/ServiceWorkerGlobalScopeCoreConstructors.idl'
p2090
aS'/media/code_dev/code_prj/blink_db/blink_core/lib/chromium_org/out/Release/gen/blink/modules/ServiceWorkerGlobalScopeModulesConstructors.idl'
p2091
assS'HTMLInputElement'
p2092
(dp2093
g2010
(lp2094
S'modules/filesystem/HTMLInputElementFileSystem.h'
p2095
asg2013
(lp2096
S'/media/code_dev/code_prj/blink_db/blink_core/lib/chromium_org/third_party/WebKit/Source/modules/filesystem/HTMLInputElementFileSystem.idl'
p2097
assS'Screen'
p2098
(dp2099
g2010
(lp2100
S'modules/screen_orientation/ScreenOrientation.h'
p2101
asg2013
(lp2102
S'/media/code_dev/code_prj/blink_db/blink_core/lib/chromium_org/third_party/WebKit/Source/modules/screen_orientation/ScreenOrientation.idl'
p2103
assS'Internals'
p2104
(dp2105
g2010
(lp2106
S'modules/geolocation/testing/InternalsGeolocation.h'
p2107
aS'modules/navigatorcontentutils/testing/InternalsNavigatorContentUtils.h'
p2108
aS'modules/speech/testing/InternalsSpeechSynthesis.h'
p2109
aS'modules/vibration/testing/InternalsVibration.h'
p2110
asg2013
(lp2111
S'/media/code_dev/code_prj/blink_db/blink_core/lib/chromium_org/third_party/WebKit/Source/modules/geolocation/testing/InternalsGeolocation.idl'
p2112
aS'/media/code_dev/code_prj/blink_db/blink_core/lib/chromium_org/third_party/WebKit/Source/modules/navigatorcontentutils/testing/InternalsNavigatorContentUtils.idl'
p2113
aS'/media/code_dev/code_prj/blink_db/blink_core/lib/chromium_org/third_party/WebKit/Source/modules/speech/testing/InternalsSpeechSynthesis.idl'
p2114
aS'/media/code_dev/code_prj/blink_db/blink_core/lib/chromium_org/third_party/WebKit/Source/modules/vibration/testing/InternalsVibration.idl'
p2115
assS'WorkerNavigator'
p2116
(dp2117
g2010
(lp2118
S'modules/netinfo/WorkerNavigatorNetworkInformation.h'
p2119
aS'modules/quota/WorkerNavigatorStorageQuota.h'
p2120
asg2013
(lp2121
S'/media/code_dev/code_prj/blink_db/blink_core/lib/chromium_org/third_party/WebKit/Source/modules/netinfo/WorkerNavigatorNetworkInformation.idl'
p2122
aS'/media/code_dev/code_prj/blink_db/blink_core/lib/chromium_org/third_party/WebKit/Source/modules/quota/WorkerNavigatorStorageQuota.idl'
p2123
assS'DataTransferItem'
p2124
(dp2125
g2010
(lp2126
S'modules/filesystem/DataTransferItemFileSystem.h'
p2127
asg2013
(lp2128
S'/media/code_dev/code_prj/blink_db/blink_core/lib/chromium_org/third_party/WebKit/Source/modules/filesystem/DataTransferItemFileSystem.idl'
p2129
assS'DedicatedWorkerGlobalScope'
p2130
(dp2131
g2010
(lp2132
S'../../../out/Release/gen/blink/modules/DedicatedWorkerGlobalScopeModulesConstructors.h'
p2133
asg2013
(lp2134
S'/media/code_dev/code_prj/blink_db/blink_core/lib/chromium_org/out/Release/gen/blink/modules/DedicatedWorkerGlobalScopeModulesConstructors.idl'
p2135
assS'SharedWorkerGlobalScope'
p2136
(dp2137
g2010
(lp2138
S'../../../out/Release/gen/blink/modules/SharedWorkerGlobalScopeModulesConstructors.h'
p2139
asg2013
(lp2140
S'/media/code_dev/code_prj/blink_db/blink_core/lib/chromium_org/out/Release/gen/blink/modules/SharedWorkerGlobalScopeModulesConstructors.idl'
p2141
assS'Navigator'
p2142
(dp2143
g2010
(lp2144
S'modules/battery/NavigatorBattery.h'
p2145
aS'modules/beacon/NavigatorBeacon.h'
p2146
aS'modules/donottrack/NavigatorDoNotTrack.h'
p2147
aS'modules/gamepad/NavigatorGamepad.h'
p2148
aS'modules/geolocation/NavigatorGeolocation.h'
p2149
aS'modules/mediastream/NavigatorMediaStream.h'
p2150
aS'modules/navigatorcontentutils/NavigatorContentUtils.h'
p2151
aS'modules/netinfo/NavigatorNetworkInformation.h'
p2152
aS'modules/push_messaging/NavigatorPushManager.h'
p2153
aS'modules/quota/NavigatorStorageQuota.h'
p2154
aS'modules/serviceworkers/NavigatorServiceWorker.h'
p2155
aS'modules/vibration/NavigatorVibration.h'
p2156
aS'modules/webmidi/NavigatorWebMIDI.h'
p2157
asg2013
(lp2158
S'/media/code_dev/code_prj/blink_db/blink_core/lib/chromium_org/third_party/WebKit/Source/modules/battery/NavigatorBattery.idl'
p2159
aS'/media/code_dev/code_prj/blink_db/blink_core/lib/chromium_org/third_party/WebKit/Source/modules/beacon/NavigatorBeacon.idl'
p2160
aS'/media/code_dev/code_prj/blink_db/blink_core/lib/chromium_org/third_party/WebKit/Source/modules/donottrack/NavigatorDoNotTrack.idl'
p2161
aS'/media/code_dev/code_prj/blink_db/blink_core/lib/chromium_org/third_party/WebKit/Source/modules/gamepad/NavigatorGamepad.idl'
p2162
aS'/media/code_dev/code_prj/blink_db/blink_core/lib/chromium_org/third_party/WebKit/Source/modules/geolocation/NavigatorGeolocation.idl'
p2163
aS'/media/code_dev/code_prj/blink_db/blink_core/lib/chromium_org/third_party/WebKit/Source/modules/mediastream/NavigatorMediaStream.idl'
p2164
aS'/media/code_dev/code_prj/blink_db/blink_core/lib/chromium_org/third_party/WebKit/Source/modules/navigatorcontentutils/NavigatorContentUtils.idl'
p2165
aS'/media/code_dev/code_prj/blink_db/blink_core/lib/chromium_org/third_party/WebKit/Source/modules/netinfo/NavigatorNetworkInformation.idl'
p2166
aS'/media/code_dev/code_prj/blink_db/blink_core/lib/chromium_org/third_party/WebKit/Source/modules/push_messaging/NavigatorPushManager.idl'
p2167
aS'/media/code_dev/code_prj/blink_db/blink_core/lib/chromium_org/third_party/WebKit/Source/modules/quota/NavigatorStorageQuota.idl'
p2168
aS'/media/code_dev/code_prj/blink_db/blink_core/lib/chromium_org/third_party/WebKit/Source/modules/serviceworkers/NavigatorServiceWorker.idl'
p2169
aS'/media/code_dev/code_prj/blink_db/blink_core/lib/chromium_org/third_party/WebKit/Source/modules/vibration/NavigatorVibration.idl'
p2170
aS'/media/code_dev/code_prj/blink_db/blink_core/lib/chromium_org/third_party/WebKit/Source/modules/webmidi/NavigatorWebMIDI.idl'
p2171
assS'HTMLVideoElement'
p2172
(dp2173
g2010
(lp2174
S'modules/mediasource/HTMLVideoElementMediaSource.h'
p2175
asg2013
(lp2176
S'/media/code_dev/code_prj/blink_db/blink_core/lib/chromium_org/third_party/WebKit/Source/modules/mediasource/HTMLVideoElementMediaSource.idl'
p2177
asss.